
temp_dir/lexer.o:     file format elf64-x86-64

SYMBOL TABLE:
0000000000000000 l    df *ABS*	0000000000000000 lexer.c
0000000000000000 l    d  .text	0000000000000000 .text
0000000000000000 l    d  .bss	0000000000000000 .bss
0000000000000000 l     F .text	000000000000011f yy_get_previous_state
0000000000000040 l     O .bss	0000000000000008 yy_c_buf_p
0000000000000038 l     O .bss	0000000000000004 yy_start
0000000000000500 l     O .rodata	0000000000000094 yy_accept
0000000000000320 l     O .rodata	0000000000000098 yy_base
0000000000000080 l     O .rodata	00000000000000fe yy_chk
0000000000000280 l     O .rodata	0000000000000098 yy_def
00000000000003c0 l     O .rodata	0000000000000022 yy_meta
0000000000000400 l     O .rodata	0000000000000100 yy_ec
0000000000000180 l     O .rodata	00000000000000fe yy_nxt
0000000000000028 l     O .bss	0000000000000008 yy_last_accepting_cpos
0000000000000030 l     O .bss	0000000000000004 yy_last_accepting_state
0000000000000120 l     F .text	000000000000002d yy_fatal_error
0000000000000150 l     F .text	00000000000000c4 yyensure_buffer_stack
0000000000000050 l     O .bss	0000000000000008 yy_buffer_stack
0000000000000058 l     O .bss	0000000000000008 yy_buffer_stack_max
0000000000000060 l     O .bss	0000000000000008 yy_buffer_stack_top
000000000000004c l     O .bss	0000000000000001 yy_hold_char
0000000000000048 l     O .bss	0000000000000004 yy_n_chars
0000000000000034 l     O .bss	0000000000000004 yy_did_buffer_switch_on_eof
00000000000003c0 l     F .text	000000000000007e yy_init_buffer
0000000000000550 l     F .text	00000000000003f6 yy_get_next_buffer
0000000000000950 l     F .text	00000000000000e4 input
000000000000003c l     O .bss	0000000000000004 yy_init
0000000000000000 l    d  .rodata	0000000000000000 .rodata
0000000000000000 l       .rodata.str1.1	0000000000000000 .LC0
0000000000000000 l       .rodata.str1.8	0000000000000000 .LC1
0000000000000038 l       .rodata.str1.8	0000000000000000 .LC2
00000000000000a0 l       .rodata.str1.8	0000000000000000 .LC4
0000000000000004 l       .rodata.str1.1	0000000000000000 .LC5
0000000000000068 l       .rodata.str1.8	0000000000000000 .LC3
00000000000000d0 l       .rodata.str1.8	0000000000000000 .LC6
0000000000000100 l       .rodata.str1.8	0000000000000000 .LC7
0000000000000130 l       .rodata.str1.8	0000000000000000 .LC8
0000000000000021 l       .rodata.str1.1	0000000000000000 .LC9
0000000000000160 l       .rodata.str1.8	0000000000000000 .LC10
00000000000001a0 l       .rodata.str1.8	0000000000000000 .LC11
00000000000001c0 l       .rodata.str1.8	0000000000000000 .LC12
000000000000003f l       .rodata.str1.1	0000000000000000 .LC13
00000000000001e8 l       .rodata.str1.8	0000000000000000 .LC14
0000000000000210 l       .rodata.str1.8	0000000000000000 .LC15
0000000000000238 l       .rodata.str1.8	0000000000000000 .LC16
0000000000000260 l       .rodata.str1.8	0000000000000000 .LC17
0000000000000000 g     O .bss	0000000000000008 yytext
0000000000000000         *UND*	0000000000000000 stderr
0000000000000000         *UND*	0000000000000000 __fprintf_chk
0000000000000000         *UND*	0000000000000000 exit
0000000000000000         *UND*	0000000000000000 realloc
0000000000000000         *UND*	0000000000000000 calloc
0000000000000220 g     F .text	00000000000000a2 yy_switch_to_buffer
0000000000000018 g     O .bss	0000000000000008 yyin
00000000000002d0 g     F .text	0000000000000061 yy_delete_buffer
0000000000000000         *UND*	0000000000000000 free
0000000000000340 g     F .text	000000000000007b yy_flush_buffer
0000000000000000         *UND*	0000000000000000 __errno_location
0000000000000000         *UND*	0000000000000000 fileno
0000000000000000         *UND*	0000000000000000 isatty
0000000000000440 g     F .text	000000000000005f yy_create_buffer
0000000000000000         *UND*	0000000000000000 malloc
00000000000004a0 g     F .text	00000000000000a5 yyrestart
0000000000000000         *UND*	0000000000000000 ferror
0000000000000000         *UND*	0000000000000000 clearerr
0000000000000000         *UND*	0000000000000000 fread
0000000000000000         *UND*	0000000000000000 getc
0000000000000000         *UND*	0000000000000000 yywrap
0000000000000a40 g     F .text	00000000000000b9 yypush_buffer_state
0000000000000b00 g     F .text	000000000000008d yypop_buffer_state
0000000000000b90 g     F .text	000000000000008f yy_scan_buffer
0000000000000c20 g     F .text	0000000000000070 yy_scan_bytes
0000000000000000         *UND*	0000000000000000 memcpy
0000000000000c90 g     F .text	0000000000000018 yy_scan_string
0000000000000000         *UND*	0000000000000000 strlen
0000000000000cb0 g     F .text	000000000000000b yyget_lineno
0000000000000000 g     O .data	0000000000000004 yylineno
0000000000000cc0 g     F .text	000000000000000c yyget_in
0000000000000cd0 g     F .text	000000000000000c yyget_out
0000000000000010 g     O .bss	0000000000000008 yyout
0000000000000ce0 g     F .text	000000000000000b yyget_leng
0000000000000020 g     O .bss	0000000000000004 yyleng
0000000000000cf0 g     F .text	000000000000000c yyget_text
0000000000000d00 g     F .text	000000000000000b yyset_lineno
0000000000000d10 g     F .text	000000000000000c yyset_in
0000000000000d20 g     F .text	000000000000000c yyset_out
0000000000000d30 g     F .text	000000000000000b yyget_debug
0000000000000008 g     O .bss	0000000000000004 yy_flex_debug
0000000000000d40 g     F .text	000000000000000b yyset_debug
0000000000000d50 g     F .text	00000000000000ac yylex_destroy
0000000000000e00 g     F .text	0000000000000009 yyalloc
0000000000000e10 g     F .text	0000000000000009 yyrealloc
0000000000000e20 g     F .text	0000000000000009 yyfree
0000000000000e30 g     F .text	0000000000000009 yyerror
0000000000000000         *UND*	0000000000000000 puts
0000000000000e40 g     F .text	0000000000000158 multiline_comment
0000000000000000         *UND*	0000000000000000 stdout
0000000000000000         *UND*	0000000000000000 putc
0000000000000000         *UND*	0000000000000000 __printf_chk
0000000000000fa0 g     F .text	00000000000006f0 yylex
0000000000000000         *UND*	0000000000000000 strtod
0000000000000000         *UND*	0000000000000000 fwrite
0000000000000000         *UND*	0000000000000000 stdin


DYNAMIC SYMBOL TABLE:
no symbols



Disassembly of section .text:

0000000000000000 <yy_get_previous_state>:
       0:	                      48 8b 05 00 00 00 00 	mov    0x0(%rip),%rax        # 7 <yy_get_previous_state+0x7>
       7:	                      4c 8b 15 00 00 00 00 	mov    0x0(%rip),%r10        # e <yy_get_previous_state+0xe>
       e:	                      41 57                	push   %r15
      10:	                      41 56                	push   %r14
      12:	                      44 8b 1d 00 00 00 00 	mov    0x0(%rip),%r11d        # 19 <yy_get_previous_state+0x19>
      19:	                      41 55                	push   %r13
      1b:	                      41 54                	push   %r12
      1d:	                      55                   	push   %rbp
      1e:	                      53                   	push   %rbx
      1f:	                      48 89 44 24 f8       	mov    %rax,-0x8(%rsp)
      24:	                      49 39 c2             	cmp    %rax,%r10
      27:	/-------------------- 0f 83 d1 00 00 00    	jae    fe <yy_get_previous_state+0xfe>
      2d:	|                     31 ed                	xor    %ebp,%ebp
      2f:	|                     4c 8d 3d 00 00 00 00 	lea    0x0(%rip),%r15        # 36 <yy_get_previous_state+0x36>
      36:	|                     4c 8d 05 00 00 00 00 	lea    0x0(%rip),%r8        # 3d <yy_get_previous_state+0x3d>
      3d:	|                     44 89 da             	mov    %r11d,%edx
      40:	|                     48 8d 3d 00 00 00 00 	lea    0x0(%rip),%rdi        # 47 <yy_get_previous_state+0x47>
      47:	|                     4c 8d 0d 00 00 00 00 	lea    0x0(%rip),%r9        # 4e <yy_get_previous_state+0x4e>
      4e:	|                     48 8d 1d 00 00 00 00 	lea    0x0(%rip),%rbx        # 55 <yy_get_previous_state+0x55>
      55:	|                     0f 1f 00             	nopl   (%rax)
      58:	|        /----------> 41 0f b6 02          	movzbl (%r10),%eax
      5c:	|        |            84 c0                	test   %al,%al
      5e:	|  /-----|----------- 0f 84 ac 00 00 00    	je     110 <yy_get_previous_state+0x110>
      64:	|  |     |            48 8d 35 00 00 00 00 	lea    0x0(%rip),%rsi        # 6b <yy_get_previous_state+0x6b>
      6b:	|  |     |            0f b6 0c 06          	movzbl (%rsi,%rax,1),%ecx
      6f:	|  |     |            89 ce                	mov    %ecx,%esi
      71:	|  |  /--|----------> 48 63 d2             	movslq %edx,%rdx
      74:	|  |  |  |            b8 01 00 00 00       	mov    $0x1,%eax
      79:	|  |  |  |            66 41 83 3c 57 00    	cmpw   $0x0,(%r15,%rdx,2)
      7f:	|  |  |  |            0f 45 e8             	cmovne %eax,%ebp
      82:	|  |  |  |            41 0f bf 04 50       	movswl (%r8,%rdx,2),%eax
      87:	|  |  |  |            4d 0f 45 ea          	cmovne %r10,%r13
      8b:	|  |  |  |            44 0f 45 e2          	cmovne %edx,%r12d
      8f:	|  |  |  |            01 c8                	add    %ecx,%eax
      91:	|  |  |  |            48 98                	cltq   
      93:	|  |  |  |            44 0f bf 34 47       	movswl (%rdi,%rax,2),%r14d
      98:	|  |  |  |            41 39 d6             	cmp    %edx,%r14d
      9b:	|  |  |  |  /-------- 74 2f                	je     cc <yy_get_previous_state+0xcc>
      9d:	|  |  |  |  |         0f 1f 00             	nopl   (%rax)
      a0:	|  |  |  |  |  /----> 41 0f bf 14 51       	movswl (%r9,%rdx,2),%edx
      a5:	|  |  |  |  |  |      41 89 d3             	mov    %edx,%r11d
      a8:	|  |  |  |  |  |      66 83 fa 49          	cmp    $0x49,%dx
      ac:	|  |  |  |  |  |  /-- 7e 07                	jle    b5 <yy_get_previous_state+0xb5>
      ae:	|  |  |  |  |  |  |   48 63 c9             	movslq %ecx,%rcx
      b1:	|  |  |  |  |  |  |   0f b6 34 0b          	movzbl (%rbx,%rcx,1),%esi
      b5:	|  |  |  |  |  |  \-> 48 63 d2             	movslq %edx,%rdx
      b8:	|  |  |  |  |  |      40 0f b6 ce          	movzbl %sil,%ecx
      bc:	|  |  |  |  |  |      41 0f bf 04 50       	movswl (%r8,%rdx,2),%eax
      c1:	|  |  |  |  |  |      01 c8                	add    %ecx,%eax
      c3:	|  |  |  |  |  |      48 98                	cltq   
      c5:	|  |  |  |  |  |      66 44 3b 1c 47       	cmp    (%rdi,%rax,2),%r11w
      ca:	|  |  |  |  |  \----- 75 d4                	jne    a0 <yy_get_previous_state+0xa0>
      cc:	|  |  |  |  \-------> 48 8d 35 00 00 00 00 	lea    0x0(%rip),%rsi        # d3 <yy_get_previous_state+0xd3>
      d3:	|  |  |  |            49 83 c2 01          	add    $0x1,%r10
      d7:	|  |  |  |            0f bf 04 46          	movswl (%rsi,%rax,2),%eax
      db:	|  |  |  |            89 c2                	mov    %eax,%edx
      dd:	|  |  |  |            4c 3b 54 24 f8       	cmp    -0x8(%rsp),%r10
      e2:	|  |  |  \----------- 0f 85 70 ff ff ff    	jne    58 <yy_get_previous_state+0x58>
      e8:	|  |  |               41 89 c3             	mov    %eax,%r11d
      eb:	|  |  |               40 84 ed             	test   %bpl,%bpl
      ee:	+--|--|-------------- 74 0e                	je     fe <yy_get_previous_state+0xfe>
      f0:	|  |  |               4c 89 2d 00 00 00 00 	mov    %r13,0x0(%rip)        # f7 <yy_get_previous_state+0xf7>
      f7:	|  |  |               44 89 25 00 00 00 00 	mov    %r12d,0x0(%rip)        # fe <yy_get_previous_state+0xfe>
      fe:	\--|--|-------------> 5b                   	pop    %rbx
      ff:	   |  |               44 89 d8             	mov    %r11d,%eax
     102:	   |  |               5d                   	pop    %rbp
     103:	   |  |               41 5c                	pop    %r12
     105:	   |  |               41 5d                	pop    %r13
     107:	   |  |               41 5e                	pop    %r14
     109:	   |  |               41 5f                	pop    %r15
     10b:	   |  |               c3                   	ret    
     10c:	   |  |               0f 1f 40 00          	nopl   0x0(%rax)
     110:	   \--|-------------> b9 01 00 00 00       	mov    $0x1,%ecx
     115:	      |               be 01 00 00 00       	mov    $0x1,%esi
     11a:	      \-------------- e9 52 ff ff ff       	jmp    71 <yy_get_previous_state+0x71>
     11f:	                      90                   	nop

0000000000000120 <yy_fatal_error>:
     120:	    50                   	push   %rax
     121:	    58                   	pop    %rax
     122:	    48 8d 15 00 00 00 00 	lea    0x0(%rip),%rdx        # 129 <yy_fatal_error+0x9>
     129:	    be 01 00 00 00       	mov    $0x1,%esi
     12e:	    31 c0                	xor    %eax,%eax
     130:	    48 83 ec 08          	sub    $0x8,%rsp
     134:	    48 89 f9             	mov    %rdi,%rcx
     137:	    48 8b 3d 00 00 00 00 	mov    0x0(%rip),%rdi        # 13e <yy_fatal_error+0x1e>
     13e:	/-- e8 00 00 00 00       	call   143 <yy_fatal_error+0x23>
     143:	\-> bf 02 00 00 00       	mov    $0x2,%edi
     148:	/-- e8 00 00 00 00       	call   14d <yy_fatal_error+0x2d>
     14d:	\-> 0f 1f 00             	nopl   (%rax)

0000000000000150 <yyensure_buffer_stack>:
     150:	          55                   	push   %rbp
     151:	          53                   	push   %rbx
     152:	          48 83 ec 08          	sub    $0x8,%rsp
     156:	          48 8b 3d 00 00 00 00 	mov    0x0(%rip),%rdi        # 15d <yyensure_buffer_stack+0xd>
     15d:	          48 85 ff             	test   %rdi,%rdi
     160:	/-------- 74 6e                	je     1d0 <yyensure_buffer_stack+0x80>
     162:	|         48 8b 05 00 00 00 00 	mov    0x0(%rip),%rax        # 169 <yyensure_buffer_stack+0x19>
     169:	|         48 8d 50 ff          	lea    -0x1(%rax),%rdx
     16d:	|         48 3b 15 00 00 00 00 	cmp    0x0(%rip),%rdx        # 174 <yyensure_buffer_stack+0x24>
     174:	|     /-- 76 0a                	jbe    180 <yyensure_buffer_stack+0x30>
     176:	|     |   48 83 c4 08          	add    $0x8,%rsp
     17a:	|     |   5b                   	pop    %rbx
     17b:	|     |   5d                   	pop    %rbp
     17c:	|     |   c3                   	ret    
     17d:	|     |   0f 1f 00             	nopl   (%rax)
     180:	|     \-> 48 8d 58 08          	lea    0x8(%rax),%rbx
     184:	|         48 8d 2c dd 00 00 00 	lea    0x0(,%rbx,8),%rbp
     18b:	|         00 
     18c:	|         48 89 ee             	mov    %rbp,%rsi
     18f:	|     /-- e8 00 00 00 00       	call   194 <yyensure_buffer_stack+0x44>
     194:	|     \-> 48 89 05 00 00 00 00 	mov    %rax,0x0(%rip)        # 19b <yyensure_buffer_stack+0x4b>
     19b:	|         48 85 c0             	test   %rax,%rax
     19e:	|  /----- 74 68                	je     208 <yyensure_buffer_stack+0xb8>
     1a0:	|  |      48 8d 44 28 c0       	lea    -0x40(%rax,%rbp,1),%rax
     1a5:	|  |      66 0f ef c0          	pxor   %xmm0,%xmm0
     1a9:	|  |      48 89 1d 00 00 00 00 	mov    %rbx,0x0(%rip)        # 1b0 <yyensure_buffer_stack+0x60>
     1b0:	|  |      0f 11 00             	movups %xmm0,(%rax)
     1b3:	|  |      0f 11 40 10          	movups %xmm0,0x10(%rax)
     1b7:	|  |      0f 11 40 20          	movups %xmm0,0x20(%rax)
     1bb:	|  |      0f 11 40 30          	movups %xmm0,0x30(%rax)
     1bf:	|  |      48 83 c4 08          	add    $0x8,%rsp
     1c3:	|  |      5b                   	pop    %rbx
     1c4:	|  |      5d                   	pop    %rbp
     1c5:	|  |      c3                   	ret    
     1c6:	|  |      66 2e 0f 1f 84 00 00 	cs nopw 0x0(%rax,%rax,1)
     1cd:	|  |      00 00 00 
     1d0:	\--|----> be 01 00 00 00       	mov    $0x1,%esi
     1d5:	   |      bf 08 00 00 00       	mov    $0x8,%edi
     1da:	   |  /-- e8 00 00 00 00       	call   1df <yyensure_buffer_stack+0x8f>
     1df:	   |  \-> 48 89 05 00 00 00 00 	mov    %rax,0x0(%rip)        # 1e6 <yyensure_buffer_stack+0x96>
     1e6:	   |      48 85 c0             	test   %rax,%rax
     1e9:	   +----- 74 1d                	je     208 <yyensure_buffer_stack+0xb8>
     1eb:	   |      48 c7 05 00 00 00 00 	movq   $0x1,0x0(%rip)        # 1f6 <yyensure_buffer_stack+0xa6>
     1f2:	   |      01 00 00 00 
     1f6:	   |      48 c7 05 00 00 00 00 	movq   $0x0,0x0(%rip)        # 201 <yyensure_buffer_stack+0xb1>
     1fd:	   |      00 00 00 00 
     201:	   |      48 83 c4 08          	add    $0x8,%rsp
     205:	   |      5b                   	pop    %rbx
     206:	   |      5d                   	pop    %rbp
     207:	   |      c3                   	ret    
     208:	   \----> 48 8d 3d 00 00 00 00 	lea    0x0(%rip),%rdi        # 20f <yyensure_buffer_stack+0xbf>
     20f:	          e8 0c ff ff ff       	call   120 <yy_fatal_error>
     214:	          66 66 2e 0f 1f 84 00 	data16 cs nopw 0x0(%rax,%rax,1)
     21b:	          00 00 00 00 
     21f:	          90                   	nop

0000000000000220 <yy_switch_to_buffer>:
     220:	          f3 0f 1e fa          	endbr64 
     224:	          53                   	push   %rbx
     225:	          48 89 fb             	mov    %rdi,%rbx
     228:	          e8 23 ff ff ff       	call   150 <yyensure_buffer_stack>
     22d:	          48 8b 05 00 00 00 00 	mov    0x0(%rip),%rax        # 234 <yy_switch_to_buffer+0x14>
     234:	          48 85 c0             	test   %rax,%rax
     237:	/-------- 74 77                	je     2b0 <yy_switch_to_buffer+0x90>
     239:	|         48 8b 15 00 00 00 00 	mov    0x0(%rip),%rdx        # 240 <yy_switch_to_buffer+0x20>
     240:	|         48 8d 04 d0          	lea    (%rax,%rdx,8),%rax
     244:	|         48 8b 10             	mov    (%rax),%rdx
     247:	|         48 39 da             	cmp    %rbx,%rdx
     24a:	|     /-- 74 60                	je     2ac <yy_switch_to_buffer+0x8c>
     24c:	|     |   48 85 d2             	test   %rdx,%rdx
     24f:	|  /--|-- 74 20                	je     271 <yy_switch_to_buffer+0x51>
     251:	|  |  |   48 8b 0d 00 00 00 00 	mov    0x0(%rip),%rcx        # 258 <yy_switch_to_buffer+0x38>
     258:	|  |  |   0f b6 15 00 00 00 00 	movzbl 0x0(%rip),%edx        # 25f <yy_switch_to_buffer+0x3f>
     25f:	|  |  |   88 11                	mov    %dl,(%rcx)
     261:	|  |  |   48 8b 10             	mov    (%rax),%rdx
     264:	|  |  |   48 89 4a 10          	mov    %rcx,0x10(%rdx)
     268:	|  |  |   8b 0d 00 00 00 00    	mov    0x0(%rip),%ecx        # 26e <yy_switch_to_buffer+0x4e>
     26e:	|  |  |   89 4a 1c             	mov    %ecx,0x1c(%rdx)
     271:	|  >--|-> 48 89 18             	mov    %rbx,(%rax)
     274:	|  |  |   8b 43 1c             	mov    0x1c(%rbx),%eax
     277:	|  |  |   c7 05 00 00 00 00 01 	movl   $0x1,0x0(%rip)        # 281 <yy_switch_to_buffer+0x61>
     27e:	|  |  |   00 00 00 
     281:	|  |  |   48 8b 13             	mov    (%rbx),%rdx
     284:	|  |  |   89 05 00 00 00 00    	mov    %eax,0x0(%rip)        # 28a <yy_switch_to_buffer+0x6a>
     28a:	|  |  |   48 8b 43 10          	mov    0x10(%rbx),%rax
     28e:	|  |  |   48 89 15 00 00 00 00 	mov    %rdx,0x0(%rip)        # 295 <yy_switch_to_buffer+0x75>
     295:	|  |  |   48 89 05 00 00 00 00 	mov    %rax,0x0(%rip)        # 29c <yy_switch_to_buffer+0x7c>
     29c:	|  |  |   48 89 05 00 00 00 00 	mov    %rax,0x0(%rip)        # 2a3 <yy_switch_to_buffer+0x83>
     2a3:	|  |  |   0f b6 00             	movzbl (%rax),%eax
     2a6:	|  |  |   88 05 00 00 00 00    	mov    %al,0x0(%rip)        # 2ac <yy_switch_to_buffer+0x8c>
     2ac:	|  |  >-> 5b                   	pop    %rbx
     2ad:	|  |  |   c3                   	ret    
     2ae:	|  |  |   66 90                	xchg   %ax,%ax
     2b0:	\--|--|-> 48 85 db             	test   %rbx,%rbx
     2b3:	   |  \-- 74 f7                	je     2ac <yy_switch_to_buffer+0x8c>
     2b5:	   |      48 8b 05 00 00 00 00 	mov    0x0(%rip),%rax        # 2bc <yy_switch_to_buffer+0x9c>
     2bc:	   |      48 c1 e0 03          	shl    $0x3,%rax
     2c0:	   \----- eb af                	jmp    271 <yy_switch_to_buffer+0x51>
     2c2:	          66 66 2e 0f 1f 84 00 	data16 cs nopw 0x0(%rax,%rax,1)
     2c9:	          00 00 00 00 
     2cd:	          0f 1f 00             	nopl   (%rax)

00000000000002d0 <yy_delete_buffer>:
     2d0:	                f3 0f 1e fa          	endbr64 
     2d4:	                48 85 ff             	test   %rdi,%rdi
     2d7:	/-------------- 74 57                	je     330 <yy_delete_buffer+0x60>
     2d9:	|               48 8b 05 00 00 00 00 	mov    0x0(%rip),%rax        # 2e0 <yy_delete_buffer+0x10>
     2e0:	|               55                   	push   %rbp
     2e1:	|               48 89 fd             	mov    %rdi,%rbp
     2e4:	|               48 85 c0             	test   %rax,%rax
     2e7:	|           /-- 74 10                	je     2f9 <yy_delete_buffer+0x29>
     2e9:	|           |   48 8b 15 00 00 00 00 	mov    0x0(%rip),%rdx        # 2f0 <yy_delete_buffer+0x20>
     2f0:	|           |   48 8d 04 d0          	lea    (%rax,%rdx,8),%rax
     2f4:	|           |   48 3b 38             	cmp    (%rax),%rdi
     2f7:	|        /--|-- 74 17                	je     310 <yy_delete_buffer+0x40>
     2f9:	|        |  \-> 8b 45 20             	mov    0x20(%rbp),%eax
     2fc:	|        |      85 c0                	test   %eax,%eax
     2fe:	|  /-----|----- 75 1e                	jne    31e <yy_delete_buffer+0x4e>
     300:	|  |  /--|----> 48 89 ef             	mov    %rbp,%rdi
     303:	|  |  |  |      5d                   	pop    %rbp
     304:	|  |  |  |  /-- e9 00 00 00 00       	jmp    309 <yy_delete_buffer+0x39>
     309:	|  |  |  |  \-> 0f 1f 80 00 00 00 00 	nopl   0x0(%rax)
     310:	|  |  |  \----> 48 c7 00 00 00 00 00 	movq   $0x0,(%rax)
     317:	|  |  |         8b 45 20             	mov    0x20(%rbp),%eax
     31a:	|  |  |         85 c0                	test   %eax,%eax
     31c:	|  |  \-------- 74 e2                	je     300 <yy_delete_buffer+0x30>
     31e:	|  \----------> 48 8b 7d 08          	mov    0x8(%rbp),%rdi
     322:	|           /-- e8 00 00 00 00       	call   327 <yy_delete_buffer+0x57>
     327:	|           \-> 48 89 ef             	mov    %rbp,%rdi
     32a:	|               5d                   	pop    %rbp
     32b:	+-------------- e9 00 00 00 00       	jmp    330 <yy_delete_buffer+0x60>
     330:	\-------------> c3                   	ret    
     331:	                66 66 2e 0f 1f 84 00 	data16 cs nopw 0x0(%rax,%rax,1)
     338:	                00 00 00 00 
     33c:	                0f 1f 40 00          	nopl   0x0(%rax)

0000000000000340 <yy_flush_buffer>:
     340:	       f3 0f 1e fa          	endbr64 
     344:	       48 85 ff             	test   %rdi,%rdi
     347:	/----- 74 45                	je     38e <yy_flush_buffer+0x4e>
     349:	|      48 8b 47 08          	mov    0x8(%rdi),%rax
     34d:	|      c7 47 1c 00 00 00 00 	movl   $0x0,0x1c(%rdi)
     354:	|      c6 00 00             	movb   $0x0,(%rax)
     357:	|      48 8b 47 08          	mov    0x8(%rdi),%rax
     35b:	|      c6 40 01 00          	movb   $0x0,0x1(%rax)
     35f:	|      48 8b 05 00 00 00 00 	mov    0x0(%rip),%rax        # 366 <yy_flush_buffer+0x26>
     366:	|      48 8b 57 08          	mov    0x8(%rdi),%rdx
     36a:	|      c7 47 28 01 00 00 00 	movl   $0x1,0x28(%rdi)
     371:	|      c7 47 38 00 00 00 00 	movl   $0x0,0x38(%rdi)
     378:	|      48 89 57 10          	mov    %rdx,0x10(%rdi)
     37c:	|      48 85 c0             	test   %rax,%rax
     37f:	+----- 74 0d                	je     38e <yy_flush_buffer+0x4e>
     381:	|      48 8b 0d 00 00 00 00 	mov    0x0(%rip),%rcx        # 388 <yy_flush_buffer+0x48>
     388:	|      48 3b 3c c8          	cmp    (%rax,%rcx,8),%rdi
     38c:	|  /-- 74 02                	je     390 <yy_flush_buffer+0x50>
     38e:	\--|-> c3                   	ret    
     38f:	   |   90                   	nop
     390:	   \-> 8b 47 1c             	mov    0x1c(%rdi),%eax
     393:	       48 89 15 00 00 00 00 	mov    %rdx,0x0(%rip)        # 39a <yy_flush_buffer+0x5a>
     39a:	       48 89 15 00 00 00 00 	mov    %rdx,0x0(%rip)        # 3a1 <yy_flush_buffer+0x61>
     3a1:	       89 05 00 00 00 00    	mov    %eax,0x0(%rip)        # 3a7 <yy_flush_buffer+0x67>
     3a7:	       48 8b 07             	mov    (%rdi),%rax
     3aa:	       48 89 05 00 00 00 00 	mov    %rax,0x0(%rip)        # 3b1 <yy_flush_buffer+0x71>
     3b1:	       0f b6 02             	movzbl (%rdx),%eax
     3b4:	       88 05 00 00 00 00    	mov    %al,0x0(%rip)        # 3ba <yy_flush_buffer+0x7a>
     3ba:	       c3                   	ret    
     3bb:	       0f 1f 44 00 00       	nopl   0x0(%rax,%rax,1)

00000000000003c0 <yy_init_buffer>:
     3c0:	       41 55                	push   %r13
     3c2:	       41 54                	push   %r12
     3c4:	       55                   	push   %rbp
     3c5:	       48 89 f5             	mov    %rsi,%rbp
     3c8:	       53                   	push   %rbx
     3c9:	       48 89 fb             	mov    %rdi,%rbx
     3cc:	       48 83 ec 08          	sub    $0x8,%rsp
     3d0:	   /-- e8 00 00 00 00       	call   3d5 <yy_init_buffer+0x15>
     3d5:	   \-> 48 89 df             	mov    %rbx,%rdi
     3d8:	       44 8b 28             	mov    (%rax),%r13d
     3db:	       49 89 c4             	mov    %rax,%r12
     3de:	   /-- e8 00 00 00 00       	call   3e3 <yy_init_buffer+0x23>
     3e3:	   \-> 48 8b 05 00 00 00 00 	mov    0x0(%rip),%rax        # 3ea <yy_init_buffer+0x2a>
     3ea:	       48 89 2b             	mov    %rbp,(%rbx)
     3ed:	       c7 43 34 01 00 00 00 	movl   $0x1,0x34(%rbx)
     3f4:	       48 85 c0             	test   %rax,%rax
     3f7:	/----- 74 0d                	je     406 <yy_init_buffer+0x46>
     3f9:	|      48 8b 15 00 00 00 00 	mov    0x0(%rip),%rdx        # 400 <yy_init_buffer+0x40>
     400:	|      48 3b 1c d0          	cmp    (%rax,%rdx,8),%rbx
     404:	|  /-- 74 08                	je     40e <yy_init_buffer+0x4e>
     406:	\--|-> 48 c7 43 2c 01 00 00 	movq   $0x1,0x2c(%rbx)
     40d:	   |   00 
     40e:	   \-> 31 c0                	xor    %eax,%eax
     410:	       48 85 ed             	test   %rbp,%rbp
     413:	/----- 74 17                	je     42c <yy_init_buffer+0x6c>
     415:	|      48 89 ef             	mov    %rbp,%rdi
     418:	|  /-- e8 00 00 00 00       	call   41d <yy_init_buffer+0x5d>
     41d:	|  \-> 89 c7                	mov    %eax,%edi
     41f:	|  /-- e8 00 00 00 00       	call   424 <yy_init_buffer+0x64>
     424:	|  \-> 85 c0                	test   %eax,%eax
     426:	|      0f 9f c0             	setg   %al
     429:	|      0f b6 c0             	movzbl %al,%eax
     42c:	\----> 89 43 24             	mov    %eax,0x24(%rbx)
     42f:	       45 89 2c 24          	mov    %r13d,(%r12)
     433:	       48 83 c4 08          	add    $0x8,%rsp
     437:	       5b                   	pop    %rbx
     438:	       5d                   	pop    %rbp
     439:	       41 5c                	pop    %r12
     43b:	       41 5d                	pop    %r13
     43d:	       c3                   	ret    
     43e:	       66 90                	xchg   %ax,%ax

0000000000000440 <yy_create_buffer>:
     440:	       f3 0f 1e fa          	endbr64 
     444:	       41 54                	push   %r12
     446:	       55                   	push   %rbp
     447:	       48 89 fd             	mov    %rdi,%rbp
     44a:	       bf 40 00 00 00       	mov    $0x40,%edi
     44f:	       53                   	push   %rbx
     450:	       89 f3                	mov    %esi,%ebx
     452:	   /-- e8 00 00 00 00       	call   457 <yy_create_buffer+0x17>
     457:	   \-> 48 85 c0             	test   %rax,%rax
     45a:	/----- 74 37                	je     493 <yy_create_buffer+0x53>
     45c:	|      89 58 18             	mov    %ebx,0x18(%rax)
     45f:	|      8d 7b 02             	lea    0x2(%rbx),%edi
     462:	|      49 89 c4             	mov    %rax,%r12
     465:	|      48 63 ff             	movslq %edi,%rdi
     468:	|  /-- e8 00 00 00 00       	call   46d <yy_create_buffer+0x2d>
     46d:	|  \-> 49 89 44 24 08       	mov    %rax,0x8(%r12)
     472:	|      48 85 c0             	test   %rax,%rax
     475:	+----- 74 1c                	je     493 <yy_create_buffer+0x53>
     477:	|      41 c7 44 24 20 01 00 	movl   $0x1,0x20(%r12)
     47e:	|      00 00 
     480:	|      48 89 ee             	mov    %rbp,%rsi
     483:	|      4c 89 e7             	mov    %r12,%rdi
     486:	|      e8 35 ff ff ff       	call   3c0 <yy_init_buffer>
     48b:	|      4c 89 e0             	mov    %r12,%rax
     48e:	|      5b                   	pop    %rbx
     48f:	|      5d                   	pop    %rbp
     490:	|      41 5c                	pop    %r12
     492:	|      c3                   	ret    
     493:	\----> 48 8d 3d 00 00 00 00 	lea    0x0(%rip),%rdi        # 49a <yy_create_buffer+0x5a>
     49a:	       e8 81 fc ff ff       	call   120 <yy_fatal_error>
     49f:	       90                   	nop

00000000000004a0 <yyrestart>:
     4a0:	       f3 0f 1e fa          	endbr64 
     4a4:	       48 8b 05 00 00 00 00 	mov    0x0(%rip),%rax        # 4ab <yyrestart+0xb>
     4ab:	       41 54                	push   %r12
     4ad:	       49 89 fc             	mov    %rdi,%r12
     4b0:	       55                   	push   %rbp
     4b1:	       53                   	push   %rbx
     4b2:	       48 85 c0             	test   %rax,%rax
     4b5:	   /-- 74 59                	je     510 <yyrestart+0x70>
     4b7:	   |   48 8b 15 00 00 00 00 	mov    0x0(%rip),%rdx        # 4be <yyrestart+0x1e>
     4be:	   |   48 8d 1c d0          	lea    (%rax,%rdx,8),%rbx
     4c2:	   |   48 8b 2b             	mov    (%rbx),%rbp
     4c5:	   |   48 85 ed             	test   %rbp,%rbp
     4c8:	   +-- 74 46                	je     510 <yyrestart+0x70>
     4ca:	/--|-> 4c 89 e6             	mov    %r12,%rsi
     4cd:	|  |   48 89 ef             	mov    %rbp,%rdi
     4d0:	|  |   e8 eb fe ff ff       	call   3c0 <yy_init_buffer>
     4d5:	|  |   48 8b 13             	mov    (%rbx),%rdx
     4d8:	|  |   5b                   	pop    %rbx
     4d9:	|  |   5d                   	pop    %rbp
     4da:	|  |   41 5c                	pop    %r12
     4dc:	|  |   8b 42 1c             	mov    0x1c(%rdx),%eax
     4df:	|  |   89 05 00 00 00 00    	mov    %eax,0x0(%rip)        # 4e5 <yyrestart+0x45>
     4e5:	|  |   48 8b 42 10          	mov    0x10(%rdx),%rax
     4e9:	|  |   48 8b 12             	mov    (%rdx),%rdx
     4ec:	|  |   48 89 05 00 00 00 00 	mov    %rax,0x0(%rip)        # 4f3 <yyrestart+0x53>
     4f3:	|  |   48 89 05 00 00 00 00 	mov    %rax,0x0(%rip)        # 4fa <yyrestart+0x5a>
     4fa:	|  |   48 89 15 00 00 00 00 	mov    %rdx,0x0(%rip)        # 501 <yyrestart+0x61>
     501:	|  |   0f b6 00             	movzbl (%rax),%eax
     504:	|  |   88 05 00 00 00 00    	mov    %al,0x0(%rip)        # 50a <yyrestart+0x6a>
     50a:	|  |   c3                   	ret    
     50b:	|  |   0f 1f 44 00 00       	nopl   0x0(%rax,%rax,1)
     510:	|  \-> e8 3b fc ff ff       	call   150 <yyensure_buffer_stack>
     515:	|      48 8b 2d 00 00 00 00 	mov    0x0(%rip),%rbp        # 51c <yyrestart+0x7c>
     51c:	|      be 00 40 00 00       	mov    $0x4000,%esi
     521:	|      48 8b 05 00 00 00 00 	mov    0x0(%rip),%rax        # 528 <yyrestart+0x88>
     528:	|      48 8b 3d 00 00 00 00 	mov    0x0(%rip),%rdi        # 52f <yyrestart+0x8f>
     52f:	|      48 8d 5c c5 00       	lea    0x0(%rbp,%rax,8),%rbx
     534:	|  /-- e8 00 00 00 00       	call   539 <yyrestart+0x99>
     539:	|  \-> 48 85 ed             	test   %rbp,%rbp
     53c:	|      48 89 03             	mov    %rax,(%rbx)
     53f:	|      48 0f 45 e8          	cmovne %rax,%rbp
     543:	\----- eb 85                	jmp    4ca <yyrestart+0x2a>
     545:	       66 66 2e 0f 1f 84 00 	data16 cs nopw 0x0(%rax,%rax,1)
     54c:	       00 00 00 00 

0000000000000550 <yy_get_next_buffer>:
     550:	                                        41 57                	push   %r15
     552:	                                        41 56                	push   %r14
     554:	                                        41 55                	push   %r13
     556:	                                        41 54                	push   %r12
     558:	                                        55                   	push   %rbp
     559:	                                        53                   	push   %rbx
     55a:	                                        48 83 ec 18          	sub    $0x18,%rsp
     55e:	                                        4c 8b 15 00 00 00 00 	mov    0x0(%rip),%r10        # 565 <yy_get_next_buffer+0x15>
     565:	                                        4c 8b 0d 00 00 00 00 	mov    0x0(%rip),%r9        # 56c <yy_get_next_buffer+0x1c>
     56c:	                                        48 63 15 00 00 00 00 	movslq 0x0(%rip),%rdx        # 573 <yy_get_next_buffer+0x23>
     573:	                                        48 8b 05 00 00 00 00 	mov    0x0(%rip),%rax        # 57a <yy_get_next_buffer+0x2a>
     57a:	                                        4f 8d 24 d1          	lea    (%r9,%r10,8),%r12
     57e:	                                        48 8b 3d 00 00 00 00 	mov    0x0(%rip),%rdi        # 585 <yy_get_next_buffer+0x35>
     585:	                                        4d 8b 2c 24          	mov    (%r12),%r13
     589:	                                        49 8b 75 08          	mov    0x8(%r13),%rsi
     58d:	                                        48 8d 54 16 01       	lea    0x1(%rsi,%rdx,1),%rdx
     592:	                                        48 39 d0             	cmp    %rdx,%rax
     595:	/-------------------------------------- 0f 87 93 03 00 00    	ja     92e <yy_get_next_buffer+0x3de>
     59b:	|                                       41 8b 4d 34          	mov    0x34(%r13),%ecx
     59f:	|                                       48 89 c2             	mov    %rax,%rdx
     5a2:	|                                       48 29 fa             	sub    %rdi,%rdx
     5a5:	|                                       85 c9                	test   %ecx,%ecx
     5a7:	|                    /----------------- 0f 84 ab 00 00 00    	je     658 <yy_get_next_buffer+0x108>
     5ad:	|                    |                  8d 6a ff             	lea    -0x1(%rdx),%ebp
     5b0:	|                    |                  85 ed                	test   %ebp,%ebp
     5b2:	|                    |           /----- 7e 23                	jle    5d7 <yy_get_next_buffer+0x87>
     5b4:	|                    |           |      44 8d 42 fe          	lea    -0x2(%rdx),%r8d
     5b8:	|                    |           |      31 d2                	xor    %edx,%edx
     5ba:	|                    |           |      66 0f 1f 44 00 00    	nopw   0x0(%rax,%rax,1)
     5c0:	|                    |           |  /-> 0f b6 0c 17          	movzbl (%rdi,%rdx,1),%ecx
     5c4:	|                    |           |  |   88 0c 16             	mov    %cl,(%rsi,%rdx,1)
     5c7:	|                    |           |  |   48 89 d1             	mov    %rdx,%rcx
     5ca:	|                    |           |  |   48 83 c2 01          	add    $0x1,%rdx
     5ce:	|                    |           |  |   49 39 c8             	cmp    %rcx,%r8
     5d1:	|                    |           |  \-- 75 ed                	jne    5c0 <yy_get_next_buffer+0x70>
     5d3:	|                    |           |      4d 8b 2c 24          	mov    (%r12),%r13
     5d7:	|                    |           \----> 41 83 7d 38 02       	cmpl   $0x2,0x38(%r13)
     5dc:	|                    |           /----- 75 41                	jne    61f <yy_get_next_buffer+0xcf>
     5de:	|  /-----------------|-----------|----- e9 5d 02 00 00       	jmp    840 <yy_get_next_buffer+0x2f0>
     5e3:	|  |                 |           |      0f 1f 44 00 00       	nopl   0x0(%rax,%rax,1)
     5e8:	|  |                 |        /--|----> 41 8b 75 18          	mov    0x18(%r13),%esi
     5ec:	|  |                 |        |  |      85 f6                	test   %esi,%esi
     5ee:	|  |                 |     /--|--|----- 0f 8e 8c 00 00 00    	jle    680 <yy_get_next_buffer+0x130>
     5f4:	|  |                 |     |  |  |      01 f6                	add    %esi,%esi
     5f6:	|  |                 |  /--|--|--|----> 41 89 75 18          	mov    %esi,0x18(%r13)
     5fa:	|  |                 |  |  |  |  |      83 c6 02             	add    $0x2,%esi
     5fd:	|  |                 |  |  |  |  |      48 63 f6             	movslq %esi,%rsi
     600:	|  |                 |  |  |  |  |  /-- e8 00 00 00 00       	call   605 <yy_get_next_buffer+0xb5>
     605:	|  |                 |  |  |  |  |  \-> 49 89 45 08          	mov    %rax,0x8(%r13)
     609:	|  |                 |  |  |  |  |      48 85 c0             	test   %rax,%rax
     60c:	|  |                 |  |  |  |  |  /-- 74 37                	je     645 <yy_get_next_buffer+0xf5>
     60e:	|  |                 |  |  |  |  |  |   48 63 db             	movslq %ebx,%rbx
     611:	|  |                 |  |  |  |  |  |   4d 8b 2c 24          	mov    (%r12),%r13
     615:	|  |                 |  |  |  |  |  |   48 01 d8             	add    %rbx,%rax
     618:	|  |                 |  |  |  |  |  |   48 89 05 00 00 00 00 	mov    %rax,0x0(%rip)        # 61f <yy_get_next_buffer+0xcf>
     61f:	|  |                 |  |  |  |  \--|-> 89 ea                	mov    %ebp,%edx
     621:	|  |                 |  |  |  |     |   f7 d2                	not    %edx
     623:	|  |                 |  |  |  |     |   41 03 55 18          	add    0x18(%r13),%edx
     627:	|  |                 |  |  |  |     |   85 d2                	test   %edx,%edx
     629:	|  |                 |  |  |  |  /--|-- 7f 65                	jg     690 <yy_get_next_buffer+0x140>
     62b:	|  |                 |  |  |  |  |  |   49 8b 7d 08          	mov    0x8(%r13),%rdi
     62f:	|  |                 |  |  |  |  |  |   48 29 f8             	sub    %rdi,%rax
     632:	|  |                 |  |  |  |  |  |   48 89 c3             	mov    %rax,%rbx
     635:	|  |                 |  |  |  |  |  |   41 8b 45 20          	mov    0x20(%r13),%eax
     639:	|  |                 |  |  |  |  |  |   85 c0                	test   %eax,%eax
     63b:	|  |                 |  |  |  \--|--|-- 75 ab                	jne    5e8 <yy_get_next_buffer+0x98>
     63d:	|  |                 |  |  |     |  |   49 c7 45 08 00 00 00 	movq   $0x0,0x8(%r13)
     644:	|  |                 |  |  |     |  |   00 
     645:	|  |                 |  |  |     |  \-> 48 8d 3d 00 00 00 00 	lea    0x0(%rip),%rdi        # 64c <yy_get_next_buffer+0xfc>
     64c:	|  |                 |  |  |     |      e8 cf fa ff ff       	call   120 <yy_fatal_error>
     651:	|  |                 |  |  |     |      0f 1f 80 00 00 00 00 	nopl   0x0(%rax)
     658:	|  |                 \--|--|-----|----> 45 31 e4             	xor    %r12d,%r12d
     65b:	|  |                    |  |     |      48 83 fa 01          	cmp    $0x1,%rdx
     65f:	|  |                    |  |     |      41 0f 95 c4          	setne  %r12b
     663:	|  |                    |  |     |      41 83 c4 01          	add    $0x1,%r12d
     667:	|  |                 /--|--|-----|----> 48 83 c4 18          	add    $0x18,%rsp
     66b:	|  |                 |  |  |     |      44 89 e0             	mov    %r12d,%eax
     66e:	|  |                 |  |  |     |      5b                   	pop    %rbx
     66f:	|  |                 |  |  |     |      5d                   	pop    %rbp
     670:	|  |                 |  |  |     |      41 5c                	pop    %r12
     672:	|  |                 |  |  |     |      41 5d                	pop    %r13
     674:	|  |                 |  |  |     |      41 5e                	pop    %r14
     676:	|  |                 |  |  |     |      41 5f                	pop    %r15
     678:	|  |                 |  |  |     |      c3                   	ret    
     679:	|  |                 |  |  |     |      0f 1f 80 00 00 00 00 	nopl   0x0(%rax)
     680:	|  |                 |  |  \-----|----> 8d 46 07             	lea    0x7(%rsi),%eax
     683:	|  |                 |  |        |      0f 49 c6             	cmovns %esi,%eax
     686:	|  |                 |  |        |      c1 f8 03             	sar    $0x3,%eax
     689:	|  |                 |  |        |      01 c6                	add    %eax,%esi
     68b:	|  |                 |  \--------|----- e9 66 ff ff ff       	jmp    5f6 <yy_get_next_buffer+0xa6>
     690:	|  |                 |           \----> b8 00 20 00 00       	mov    $0x2000,%eax
     695:	|  |                 |                  45 8b 65 24          	mov    0x24(%r13),%r12d
     699:	|  |                 |                  39 c2                	cmp    %eax,%edx
     69b:	|  |                 |                  0f 4e c2             	cmovle %edx,%eax
     69e:	|  |                 |                  41 89 c6             	mov    %eax,%r14d
     6a1:	|  |                 |                  45 85 e4             	test   %r12d,%r12d
     6a4:	|  |                 |  /-------------- 0f 85 e6 00 00 00    	jne    790 <yy_get_next_buffer+0x240>
     6aa:	|  |                 |  |           /-- e8 00 00 00 00       	call   6af <yy_get_next_buffer+0x15f>
     6af:	|  |                 |  |           \-> 4d 63 fe             	movslq %r14d,%r15
     6b2:	|  |                 |  |               c7 00 00 00 00 00    	movl   $0x0,(%rax)
     6b8:	|  |                 |  |               48 89 c3             	mov    %rax,%rbx
     6bb:	|  |                 |  |               48 63 c5             	movslq %ebp,%rax
     6be:	|  |                 |  |               48 89 44 24 08       	mov    %rax,0x8(%rsp)
     6c3:	|  |                 |  |        /----- eb 44                	jmp    709 <yy_get_next_buffer+0x1b9>
     6c5:	|  |                 |  |        |      0f 1f 00             	nopl   (%rax)
     6c8:	|  |                 |  |     /--|----> 48 8b 3d 00 00 00 00 	mov    0x0(%rip),%rdi        # 6cf <yy_get_next_buffer+0x17f>
     6cf:	|  |                 |  |     |  |  /-- e8 00 00 00 00       	call   6d4 <yy_get_next_buffer+0x184>
     6d4:	|  |                 |  |     |  |  \-> 85 c0                	test   %eax,%eax
     6d6:	|  |     /-----------|--|-----|--|----- 0f 84 dc 01 00 00    	je     8b8 <yy_get_next_buffer+0x368>
     6dc:	|  |     |           |  |     |  |      83 3b 04             	cmpl   $0x4,(%rbx)
     6df:	|  |  /--|-----------|--|-----|--|----- 0f 85 3d 02 00 00    	jne    922 <yy_get_next_buffer+0x3d2>
     6e5:	|  |  |  |           |  |     |  |      c7 03 00 00 00 00    	movl   $0x0,(%rbx)
     6eb:	|  |  |  |           |  |     |  |      48 8b 3d 00 00 00 00 	mov    0x0(%rip),%rdi        # 6f2 <yy_get_next_buffer+0x1a2>
     6f2:	|  |  |  |           |  |     |  |  /-- e8 00 00 00 00       	call   6f7 <yy_get_next_buffer+0x1a7>
     6f7:	|  |  |  |           |  |     |  |  \-> 48 8b 15 00 00 00 00 	mov    0x0(%rip),%rdx        # 6fe <yy_get_next_buffer+0x1ae>
     6fe:	|  |  |  |           |  |     |  |      48 8b 05 00 00 00 00 	mov    0x0(%rip),%rax        # 705 <yy_get_next_buffer+0x1b5>
     705:	|  |  |  |           |  |     |  |      4c 8b 2c d0          	mov    (%rax,%rdx,8),%r13
     709:	|  |  |  |           |  |     |  \----> 48 8b 0d 00 00 00 00 	mov    0x0(%rip),%rcx        # 710 <yy_get_next_buffer+0x1c0>
     710:	|  |  |  |           |  |     |         48 8b 7c 24 08       	mov    0x8(%rsp),%rdi
     715:	|  |  |  |           |  |     |         4c 89 fa             	mov    %r15,%rdx
     718:	|  |  |  |           |  |     |         be 01 00 00 00       	mov    $0x1,%esi
     71d:	|  |  |  |           |  |     |         49 03 7d 08          	add    0x8(%r13),%rdi
     721:	|  |  |  |           |  |     |     /-- e8 00 00 00 00       	call   726 <yy_get_next_buffer+0x1d6>
     726:	|  |  |  |           |  |     |     \-> 89 05 00 00 00 00    	mov    %eax,0x0(%rip)        # 72c <yy_get_next_buffer+0x1dc>
     72c:	|  |  |  |           |  |     |         41 89 c6             	mov    %eax,%r14d
     72f:	|  |  |  |           |  |     |         85 c0                	test   %eax,%eax
     731:	|  |  |  |           |  |     \-------- 74 95                	je     6c8 <yy_get_next_buffer+0x178>
     733:	|  |  |  |           |  |               48 8b 35 00 00 00 00 	mov    0x0(%rip),%rsi        # 73a <yy_get_next_buffer+0x1ea>
     73a:	|  |  |  |           |  |               48 8b 0d 00 00 00 00 	mov    0x0(%rip),%rcx        # 741 <yy_get_next_buffer+0x1f1>
     741:	|  |  |  |           |  |               48 8d 1c f1          	lea    (%rcx,%rsi,8),%rbx
     745:	|  |  |  |           |  |               4c 8b 2b             	mov    (%rbx),%r13
     748:	|  |  |  |           |  |               41 89 45 1c          	mov    %eax,0x1c(%r13)
     74c:	|  |  |  |  /--------|--|-------------> 49 8b 7d 08          	mov    0x8(%r13),%rdi
     750:	|  |  |  |  |        |  |               44 01 f5             	add    %r14d,%ebp
     753:	|  |  |  |  |        |  |               41 3b 6d 18          	cmp    0x18(%r13),%ebp
     757:	|  |  |  |  |        |  |     /-------- 0f 8f b1 00 00 00    	jg     80e <yy_get_next_buffer+0x2be>
     75d:	|  |  |  |  |        |  |  /--|-------> 89 2d 00 00 00 00    	mov    %ebp,0x0(%rip)        # 763 <yy_get_next_buffer+0x213>
     763:	|  |  |  |  |        |  |  |  |         48 63 ed             	movslq %ebp,%rbp
     766:	|  |  |  |  |        |  |  |  |         c6 04 2f 00          	movb   $0x0,(%rdi,%rbp,1)
     76a:	|  |  |  |  |        |  |  |  |         48 8b 03             	mov    (%rbx),%rax
     76d:	|  |  |  |  |        |  |  |  |         48 8b 40 08          	mov    0x8(%rax),%rax
     771:	|  |  |  |  |        |  |  |  |         c6 44 28 01 00       	movb   $0x0,0x1(%rax,%rbp,1)
     776:	|  |  |  |  |        |  |  |  |         48 8b 03             	mov    (%rbx),%rax
     779:	|  |  |  |  |        |  |  |  |         48 8b 40 08          	mov    0x8(%rax),%rax
     77d:	|  |  |  |  |        |  |  |  |         48 89 05 00 00 00 00 	mov    %rax,0x0(%rip)        # 784 <yy_get_next_buffer+0x234>
     784:	|  |  |  |  |        \--|--|--|-------- e9 de fe ff ff       	jmp    667 <yy_get_next_buffer+0x117>
     789:	|  |  |  |  |           |  |  |         0f 1f 80 00 00 00 00 	nopl   0x0(%rax)
     790:	|  |  |  |  |           \--|--|-------> 4c 63 ed             	movslq %ebp,%r13
     793:	|  |  |  |  |              |  |         45 31 e4             	xor    %r12d,%r12d
     796:	|  |  |  |  |              |  |         66 2e 0f 1f 84 00 00 	cs nopw 0x0(%rax,%rax,1)
     79d:	|  |  |  |  |              |  |         00 00 00 
     7a0:	|  |  |  |  |              |  |  /----> 48 8b 3d 00 00 00 00 	mov    0x0(%rip),%rdi        # 7a7 <yy_get_next_buffer+0x257>
     7a7:	|  |  |  |  |              |  |  |  /-- e8 00 00 00 00       	call   7ac <yy_get_next_buffer+0x25c>
     7ac:	|  |  |  |  |              |  |  |  \-> 83 f8 ff             	cmp    $0xffffffff,%eax
     7af:	|  |  |  |  |  /-----------|--|--|----- 0f 84 2c 01 00 00    	je     8e1 <yy_get_next_buffer+0x391>
     7b5:	|  |  |  |  |  |           |  |  |      48 8b 0d 00 00 00 00 	mov    0x0(%rip),%rcx        # 7bc <yy_get_next_buffer+0x26c>
     7bc:	|  |  |  |  |  |           |  |  |      48 8b 35 00 00 00 00 	mov    0x0(%rip),%rsi        # 7c3 <yy_get_next_buffer+0x273>
     7c3:	|  |  |  |  |  |           |  |  |      41 83 c4 01          	add    $0x1,%r12d
     7c7:	|  |  |  |  |  |           |  |  |      48 8d 1c f1          	lea    (%rcx,%rsi,8),%rbx
     7cb:	|  |  |  |  |  |           |  |  |      48 8b 0b             	mov    (%rbx),%rcx
     7ce:	|  |  |  |  |  |           |  |  |      48 8b 79 08          	mov    0x8(%rcx),%rdi
     7d2:	|  |  |  |  |  |           |  |  |      4c 01 ef             	add    %r13,%rdi
     7d5:	|  |  |  |  |  |           |  |  |      48 89 f9             	mov    %rdi,%rcx
     7d8:	|  |  |  |  |  |           |  |  |      83 f8 0a             	cmp    $0xa,%eax
     7db:	|  |  |  |  |  |     /-----|--|--|----- 0f 84 f5 00 00 00    	je     8d6 <yy_get_next_buffer+0x386>
     7e1:	|  |  |  |  |  |     |     |  |  |      88 01                	mov    %al,(%rcx)
     7e3:	|  |  |  |  |  |     |     |  |  |      49 83 c5 01          	add    $0x1,%r13
     7e7:	|  |  |  |  |  |     |     |  |  |      45 39 e6             	cmp    %r12d,%r14d
     7ea:	|  |  |  |  |  |     |     |  |  \----- 75 b4                	jne    7a0 <yy_get_next_buffer+0x250>
     7ec:	|  |  |  |  |  |     |  /--|--|-------> 4c 8b 2b             	mov    (%rbx),%r13
     7ef:	|  |  |  |  |  |     |  |  |  |         44 89 35 00 00 00 00 	mov    %r14d,0x0(%rip)        # 7f6 <yy_get_next_buffer+0x2a6>
     7f6:	|  |  |  |  |  |     |  |  |  |         45 89 75 1c          	mov    %r14d,0x1c(%r13)
     7fa:	|  |  |  |  |  |  /--|--|--|--|-------> 49 8b 7d 08          	mov    0x8(%r13),%rdi
     7fe:	|  |  |  |  |  |  |  |  |  |  |         45 31 e4             	xor    %r12d,%r12d
     801:	|  |  |  |  |  |  |  |  |  |  |         44 01 f5             	add    %r14d,%ebp
     804:	|  |  |  |  |  |  |  |  |  |  |         41 3b 6d 18          	cmp    0x18(%r13),%ebp
     808:	|  |  |  |  |  |  |  |  |  +--|-------- 0f 8e 4f ff ff ff    	jle    75d <yy_get_next_buffer+0x20d>
     80e:	|  |  |  |  |  |  |  |  |  |  \-------> 44 89 f2             	mov    %r14d,%edx
     811:	|  |  |  |  |  |  |  |  |  |            d1 fa                	sar    %edx
     813:	|  |  |  |  |  |  |  |  |  |            44 8d 34 2a          	lea    (%rdx,%rbp,1),%r14d
     817:	|  |  |  |  |  |  |  |  |  |            49 63 f6             	movslq %r14d,%rsi
     81a:	|  |  |  |  |  |  |  |  |  |        /-- e8 00 00 00 00       	call   81f <yy_get_next_buffer+0x2cf>
     81f:	|  |  |  |  |  |  |  |  |  |        \-> 49 89 45 08          	mov    %rax,0x8(%r13)
     823:	|  |  |  |  |  |  |  |  |  |            48 8b 03             	mov    (%rbx),%rax
     826:	|  |  |  |  |  |  |  |  |  |            48 8b 78 08          	mov    0x8(%rax),%rdi
     82a:	|  |  |  |  |  |  |  |  |  |            48 85 ff             	test   %rdi,%rdi
     82d:	|  |  |  |  |  |  |  |  |  |  /-------- 0f 84 07 01 00 00    	je     93a <yy_get_next_buffer+0x3ea>
     833:	|  |  |  |  |  |  |  |  |  |  |         41 83 ee 02          	sub    $0x2,%r14d
     837:	|  |  |  |  |  |  |  |  |  |  |         44 89 70 18          	mov    %r14d,0x18(%rax)
     83b:	|  |  |  |  |  |  |  |  |  \--|-------- e9 1d ff ff ff       	jmp    75d <yy_get_next_buffer+0x20d>
     840:	|  \--|--|--|--|--|--|--|-----|-------> c7 05 00 00 00 00 00 	movl   $0x0,0x0(%rip)        # 84a <yy_get_next_buffer+0x2fa>
     847:	|     |  |  |  |  |  |  |     |         00 00 00 
     84a:	|     |  |  |  |  |  |  |     |         41 c7 45 1c 00 00 00 	movl   $0x0,0x1c(%r13)
     851:	|     |  |  |  |  |  |  |     |         00 
     852:	|     |  |  |  |  |  |  |     |  /----> 85 ed                	test   %ebp,%ebp
     854:	|     |  |  |  |  |  |  |     |  |  /-- 74 2a                	je     880 <yy_get_next_buffer+0x330>
     856:	|     |  |  |  |  |  |  |     |  |  |   4b 8d 1c d1          	lea    (%r9,%r10,8),%rbx
     85a:	|     |  |  |  |  |  |  |     |  |  |   44 8b 35 00 00 00 00 	mov    0x0(%rip),%r14d        # 861 <yy_get_next_buffer+0x311>
     861:	|     |  |  |  |  |  |  |     |  |  |   41 bc 02 00 00 00    	mov    $0x2,%r12d
     867:	|     |  |  |  |  |  |  |     |  |  |   4c 8b 2b             	mov    (%rbx),%r13
     86a:	|     |  |  |  |  |  |  |     |  |  |   41 c7 45 38 02 00 00 	movl   $0x2,0x38(%r13)
     871:	|     |  |  |  |  |  |  |     |  |  |   00 
     872:	|     |  |  +--|--|--|--|-----|--|--|-- e9 d5 fe ff ff       	jmp    74c <yy_get_next_buffer+0x1fc>
     877:	|     |  |  |  |  |  |  |     |  |  |   66 0f 1f 84 00 00 00 	nopw   0x0(%rax,%rax,1)
     87e:	|     |  |  |  |  |  |  |     |  |  |   00 00 
     880:	|     |  |  |  |  |  |  |     |  |  \-> 48 8b 3d 00 00 00 00 	mov    0x0(%rip),%rdi        # 887 <yy_get_next_buffer+0x337>
     887:	|     |  |  |  |  |  |  |     |  |      41 bc 01 00 00 00    	mov    $0x1,%r12d
     88d:	|     |  |  |  |  |  |  |     |  |  /-- e8 00 00 00 00       	call   892 <yy_get_next_buffer+0x342>
     892:	|     |  |  |  |  |  |  |     |  |  \-> 48 8b 0d 00 00 00 00 	mov    0x0(%rip),%rcx        # 899 <yy_get_next_buffer+0x349>
     899:	|     |  |  |  |  |  |  |     |  |      48 8b 05 00 00 00 00 	mov    0x0(%rip),%rax        # 8a0 <yy_get_next_buffer+0x350>
     8a0:	|     |  |  |  |  |  |  |     |  |      44 8b 35 00 00 00 00 	mov    0x0(%rip),%r14d        # 8a7 <yy_get_next_buffer+0x357>
     8a7:	|     |  |  |  |  |  |  |     |  |      48 8d 1c c8          	lea    (%rax,%rcx,8),%rbx
     8ab:	|     |  |  |  |  |  |  |     |  |      4c 8b 2b             	mov    (%rbx),%r13
     8ae:	|     |  |  \--|--|--|--|-----|--|----- e9 99 fe ff ff       	jmp    74c <yy_get_next_buffer+0x1fc>
     8b3:	|     |  |     |  |  |  |     |  |      0f 1f 44 00 00       	nopl   0x0(%rax,%rax,1)
     8b8:	|     |  \-----|--|--|--|-----|--|----> 4c 8b 15 00 00 00 00 	mov    0x0(%rip),%r10        # 8bf <yy_get_next_buffer+0x36f>
     8bf:	|     |        |  |  |  |     |  |      4c 8b 0d 00 00 00 00 	mov    0x0(%rip),%r9        # 8c6 <yy_get_next_buffer+0x376>
     8c6:	|     |        |  |  |  |     |  |      4b 8b 04 d1          	mov    (%r9,%r10,8),%rax
     8ca:	|     |        |  |  |  |     |  |      c7 40 1c 00 00 00 00 	movl   $0x0,0x1c(%rax)
     8d1:	|     |        |  |  |  |     |  +----- e9 7c ff ff ff       	jmp    852 <yy_get_next_buffer+0x302>
     8d6:	|     |        |  |  \--|-----|--|----> c6 07 0a             	movb   $0xa,(%rdi)
     8d9:	|     |        |  |     |     |  |      45 89 e6             	mov    %r12d,%r14d
     8dc:	|     |        |  |     \-----|--|----- e9 0b ff ff ff       	jmp    7ec <yy_get_next_buffer+0x29c>
     8e1:	|     |        \--|-----------|--|----> 48 8b 3d 00 00 00 00 	mov    0x0(%rip),%rdi        # 8e8 <yy_get_next_buffer+0x398>
     8e8:	|     |           |           |  |  /-- e8 00 00 00 00       	call   8ed <yy_get_next_buffer+0x39d>
     8ed:	|     |           |           |  |  \-> 85 c0                	test   %eax,%eax
     8ef:	|     +-----------|-----------|--|----- 75 31                	jne    922 <yy_get_next_buffer+0x3d2>
     8f1:	|     |           |           |  |      4c 8b 15 00 00 00 00 	mov    0x0(%rip),%r10        # 8f8 <yy_get_next_buffer+0x3a8>
     8f8:	|     |           |           |  |      4c 8b 0d 00 00 00 00 	mov    0x0(%rip),%r9        # 8ff <yy_get_next_buffer+0x3af>
     8ff:	|     |           |           |  |      44 89 25 00 00 00 00 	mov    %r12d,0x0(%rip)        # 906 <yy_get_next_buffer+0x3b6>
     906:	|     |           |           |  |      4b 8d 1c d1          	lea    (%r9,%r10,8),%rbx
     90a:	|     |           |           |  |      4c 8b 2b             	mov    (%rbx),%r13
     90d:	|     |           |           |  |      45 89 65 1c          	mov    %r12d,0x1c(%r13)
     911:	|     |           |           |  |      45 85 e4             	test   %r12d,%r12d
     914:	|     |           |           |  \----- 0f 84 38 ff ff ff    	je     852 <yy_get_next_buffer+0x302>
     91a:	|     |           |           |         45 89 e6             	mov    %r12d,%r14d
     91d:	|     |           \-----------|-------- e9 d8 fe ff ff       	jmp    7fa <yy_get_next_buffer+0x2aa>
     922:	|     \-----------------------|-------> 48 8d 3d 00 00 00 00 	lea    0x0(%rip),%rdi        # 929 <yy_get_next_buffer+0x3d9>
     929:	|                             |         e8 f2 f7 ff ff       	call   120 <yy_fatal_error>
     92e:	\-----------------------------|-------> 48 8d 3d 00 00 00 00 	lea    0x0(%rip),%rdi        # 935 <yy_get_next_buffer+0x3e5>
     935:	                              |         e8 e6 f7 ff ff       	call   120 <yy_fatal_error>
     93a:	                              \-------> 48 8d 3d 00 00 00 00 	lea    0x0(%rip),%rdi        # 941 <yy_get_next_buffer+0x3f1>
     941:	                                        e8 da f7 ff ff       	call   120 <yy_fatal_error>
     946:	                                        66 2e 0f 1f 84 00 00 	cs nopw 0x0(%rax,%rax,1)
     94d:	                                        00 00 00 

0000000000000950 <input>:
     950:	                   55                   	push   %rbp
     951:	                   53                   	push   %rbx
     952:	                   48 83 ec 08          	sub    $0x8,%rsp
     956:	   /-------------> 48 8b 1d 00 00 00 00 	mov    0x0(%rip),%rbx        # 95d <input+0xd>
     95d:	   |               0f b6 05 00 00 00 00 	movzbl 0x0(%rip),%eax        # 964 <input+0x14>
     964:	   |               48 8d 53 01          	lea    0x1(%rbx),%rdx
     968:	   |               88 03                	mov    %al,(%rbx)
     96a:	   |               84 c0                	test   %al,%al
     96c:	/--|-------------- 75 4e                	jne    9bc <input+0x6c>
     96e:	|  |               48 8b 05 00 00 00 00 	mov    0x0(%rip),%rax        # 975 <input+0x25>
     975:	|  |               48 8b 0d 00 00 00 00 	mov    0x0(%rip),%rcx        # 97c <input+0x2c>
     97c:	|  |               48 8b 0c c8          	mov    (%rax,%rcx,8),%rcx
     980:	|  |               48 63 05 00 00 00 00 	movslq 0x0(%rip),%rax        # 987 <input+0x37>
     987:	|  |               48 03 41 08          	add    0x8(%rcx),%rax
     98b:	|  |               48 39 c3             	cmp    %rax,%rbx
     98e:	+--|-------------- 72 2c                	jb     9bc <input+0x6c>
     990:	|  |               48 89 15 00 00 00 00 	mov    %rdx,0x0(%rip)        # 997 <input+0x47>
     997:	|  |               48 8b 2d 00 00 00 00 	mov    0x0(%rip),%rbp        # 99e <input+0x4e>
     99e:	|  |               e8 ad fb ff ff       	call   550 <yy_get_next_buffer>
     9a3:	|  |               83 f8 01             	cmp    $0x1,%eax
     9a6:	|  |        /----- 74 44                	je     9ec <input+0x9c>
     9a8:	|  |        |      83 f8 02             	cmp    $0x2,%eax
     9ab:	|  |        |  /-- 74 33                	je     9e0 <input+0x90>
     9ad:	|  |        |  |   85 c0                	test   %eax,%eax
     9af:	|  |  /-----|--|-- 74 67                	je     a18 <input+0xc8>
     9b1:	|  |  |     |  |   48 8b 1d 00 00 00 00 	mov    0x0(%rip),%rbx        # 9b8 <input+0x68>
     9b8:	|  |  |     |  |   48 8d 53 01          	lea    0x1(%rbx),%rdx
     9bc:	>--|--|-----|--|-> 48 89 15 00 00 00 00 	mov    %rdx,0x0(%rip)        # 9c3 <input+0x73>
     9c3:	|  |  |     |  |   0f b6 53 01          	movzbl 0x1(%rbx),%edx
     9c7:	|  |  |     |  |   0f b6 03             	movzbl (%rbx),%eax
     9ca:	|  |  |     |  |   c6 03 00             	movb   $0x0,(%rbx)
     9cd:	|  |  |     |  |   88 15 00 00 00 00    	mov    %dl,0x0(%rip)        # 9d3 <input+0x83>
     9d3:	|  |  |  /--|--|-> 48 83 c4 08          	add    $0x8,%rsp
     9d7:	|  |  |  |  |  |   5b                   	pop    %rbx
     9d8:	|  |  |  |  |  |   5d                   	pop    %rbp
     9d9:	|  |  |  |  |  |   c3                   	ret    
     9da:	|  |  |  |  |  |   66 0f 1f 44 00 00    	nopw   0x0(%rax,%rax,1)
     9e0:	|  |  |  |  |  \-> 48 8b 3d 00 00 00 00 	mov    0x0(%rip),%rdi        # 9e7 <input+0x97>
     9e7:	|  |  |  |  +----- e8 00 00 00 00       	call   9ec <input+0x9c>
     9ec:	|  |  |  |  \--/-X e8 00 00 00 00       	call   9f1 <input+0xa1>
     9f1:	|  |  |  |     \-> 85 c0                	test   %eax,%eax
     9f3:	|  |  |  |  /----- 75 3b                	jne    a30 <input+0xe0>
     9f5:	|  |  |  |  |      8b 05 00 00 00 00    	mov    0x0(%rip),%eax        # 9fb <input+0xab>
     9fb:	|  |  |  |  |      85 c0                	test   %eax,%eax
     9fd:	|  +--|--|--|----- 0f 85 53 ff ff ff    	jne    956 <input+0x6>
     a03:	|  |  |  |  |      48 8b 3d 00 00 00 00 	mov    0x0(%rip),%rdi        # a0a <input+0xba>
     a0a:	|  |  |  |  |  /-- e8 00 00 00 00       	call   a0f <input+0xbf>
     a0f:	|  \--|--|--|--\-X e9 42 ff ff ff       	jmp    956 <input+0x6>
     a14:	|     |  |  |      0f 1f 40 00          	nopl   0x0(%rax)
     a18:	|     \--|--|----> 48 29 eb             	sub    %rbp,%rbx
     a1b:	|        |  |      48 63 db             	movslq %ebx,%rbx
     a1e:	|        |  |      48 03 1d 00 00 00 00 	add    0x0(%rip),%rbx        # a25 <input+0xd5>
     a25:	|        |  |      48 8d 53 01          	lea    0x1(%rbx),%rdx
     a29:	\--------|--|----- eb 91                	jmp    9bc <input+0x6c>
     a2b:	         |  |      0f 1f 44 00 00       	nopl   0x0(%rax,%rax,1)
     a30:	         |  \----> 31 c0                	xor    %eax,%eax
     a32:	         \-------- eb 9f                	jmp    9d3 <input+0x83>
     a34:	                   66 66 2e 0f 1f 84 00 	data16 cs nopw 0x0(%rax,%rax,1)
     a3b:	                   00 00 00 00 
     a3f:	                   90                   	nop

0000000000000a40 <yypush_buffer_state>:
     a40:	       f3 0f 1e fa          	endbr64 
     a44:	       48 85 ff             	test   %rdi,%rdi
     a47:	/----- 0f 84 ab 00 00 00    	je     af8 <yypush_buffer_state+0xb8>
     a4d:	|      53                   	push   %rbx
     a4e:	|      48 89 fb             	mov    %rdi,%rbx
     a51:	|      e8 fa f6 ff ff       	call   150 <yyensure_buffer_stack>
     a56:	|      48 8b 05 00 00 00 00 	mov    0x0(%rip),%rax        # a5d <yypush_buffer_state+0x1d>
     a5d:	|      48 8b 15 00 00 00 00 	mov    0x0(%rip),%rdx        # a64 <yypush_buffer_state+0x24>
     a64:	|      48 c1 e0 03          	shl    $0x3,%rax
     a68:	|      48 85 d2             	test   %rdx,%rdx
     a6b:	|  /-- 74 4b                	je     ab8 <yypush_buffer_state+0x78>
     a6d:	|  |   48 8b 0d 00 00 00 00 	mov    0x0(%rip),%rcx        # a74 <yypush_buffer_state+0x34>
     a74:	|  |   48 8d 34 cd 00 00 00 	lea    0x0(,%rcx,8),%rsi
     a7b:	|  |   00 
     a7c:	|  |   48 8d 04 32          	lea    (%rdx,%rsi,1),%rax
     a80:	|  |   48 83 38 00          	cmpq   $0x0,(%rax)
     a84:	|  +-- 74 32                	je     ab8 <yypush_buffer_state+0x78>
     a86:	|  |   48 8b 3d 00 00 00 00 	mov    0x0(%rip),%rdi        # a8d <yypush_buffer_state+0x4d>
     a8d:	|  |   44 0f b6 05 00 00 00 	movzbl 0x0(%rip),%r8d        # a95 <yypush_buffer_state+0x55>
     a94:	|  |   00 
     a95:	|  |   48 83 c1 01          	add    $0x1,%rcx
     a99:	|  |   48 89 0d 00 00 00 00 	mov    %rcx,0x0(%rip)        # aa0 <yypush_buffer_state+0x60>
     aa0:	|  |   44 88 07             	mov    %r8b,(%rdi)
     aa3:	|  |   48 8b 00             	mov    (%rax),%rax
     aa6:	|  |   48 89 78 10          	mov    %rdi,0x10(%rax)
     aaa:	|  |   8b 3d 00 00 00 00    	mov    0x0(%rip),%edi        # ab0 <yypush_buffer_state+0x70>
     ab0:	|  |   89 78 1c             	mov    %edi,0x1c(%rax)
     ab3:	|  |   48 8d 44 32 08       	lea    0x8(%rdx,%rsi,1),%rax
     ab8:	|  \-> 48 89 18             	mov    %rbx,(%rax)
     abb:	|      8b 43 1c             	mov    0x1c(%rbx),%eax
     abe:	|      c7 05 00 00 00 00 01 	movl   $0x1,0x0(%rip)        # ac8 <yypush_buffer_state+0x88>
     ac5:	|      00 00 00 
     ac8:	|      48 8b 13             	mov    (%rbx),%rdx
     acb:	|      89 05 00 00 00 00    	mov    %eax,0x0(%rip)        # ad1 <yypush_buffer_state+0x91>
     ad1:	|      48 8b 43 10          	mov    0x10(%rbx),%rax
     ad5:	|      48 89 15 00 00 00 00 	mov    %rdx,0x0(%rip)        # adc <yypush_buffer_state+0x9c>
     adc:	|      5b                   	pop    %rbx
     add:	|      48 89 05 00 00 00 00 	mov    %rax,0x0(%rip)        # ae4 <yypush_buffer_state+0xa4>
     ae4:	|      48 89 05 00 00 00 00 	mov    %rax,0x0(%rip)        # aeb <yypush_buffer_state+0xab>
     aeb:	|      0f b6 00             	movzbl (%rax),%eax
     aee:	|      88 05 00 00 00 00    	mov    %al,0x0(%rip)        # af4 <yypush_buffer_state+0xb4>
     af4:	|      c3                   	ret    
     af5:	|      0f 1f 00             	nopl   (%rax)
     af8:	\----> c3                   	ret    
     af9:	       0f 1f 80 00 00 00 00 	nopl   0x0(%rax)

0000000000000b00 <yypop_buffer_state>:
     b00:	       f3 0f 1e fa          	endbr64 
     b04:	       41 54                	push   %r12
     b06:	       55                   	push   %rbp
     b07:	       48 8b 2d 00 00 00 00 	mov    0x0(%rip),%rbp        # b0e <yypop_buffer_state+0xe>
     b0e:	       53                   	push   %rbx
     b0f:	       48 85 ed             	test   %rbp,%rbp
     b12:	/----- 74 74                	je     b88 <yypop_buffer_state+0x88>
     b14:	|      48 8b 1d 00 00 00 00 	mov    0x0(%rip),%rbx        # b1b <yypop_buffer_state+0x1b>
     b1b:	|      4c 8d 64 dd 00       	lea    0x0(%rbp,%rbx,8),%r12
     b20:	|      49 8b 3c 24          	mov    (%r12),%rdi
     b24:	|      48 85 ff             	test   %rdi,%rdi
     b27:	+----- 74 5f                	je     b88 <yypop_buffer_state+0x88>
     b29:	|  /-- e8 00 00 00 00       	call   b2e <yypop_buffer_state+0x2e>
     b2e:	|  \-> 49 c7 04 24 00 00 00 	movq   $0x0,(%r12)
     b35:	|      00 
     b36:	|      48 85 db             	test   %rbx,%rbx
     b39:	+----- 74 4d                	je     b88 <yypop_buffer_state+0x88>
     b3b:	|      48 83 eb 01          	sub    $0x1,%rbx
     b3f:	|      48 8b 44 dd 00       	mov    0x0(%rbp,%rbx,8),%rax
     b44:	|      48 89 1d 00 00 00 00 	mov    %rbx,0x0(%rip)        # b4b <yypop_buffer_state+0x4b>
     b4b:	|      48 85 c0             	test   %rax,%rax
     b4e:	+----- 74 38                	je     b88 <yypop_buffer_state+0x88>
     b50:	|      c7 05 00 00 00 00 01 	movl   $0x1,0x0(%rip)        # b5a <yypop_buffer_state+0x5a>
     b57:	|      00 00 00 
     b5a:	|      8b 50 1c             	mov    0x1c(%rax),%edx
     b5d:	|      89 15 00 00 00 00    	mov    %edx,0x0(%rip)        # b63 <yypop_buffer_state+0x63>
     b63:	|      48 8b 50 10          	mov    0x10(%rax),%rdx
     b67:	|      48 8b 00             	mov    (%rax),%rax
     b6a:	|      48 89 15 00 00 00 00 	mov    %rdx,0x0(%rip)        # b71 <yypop_buffer_state+0x71>
     b71:	|      48 89 05 00 00 00 00 	mov    %rax,0x0(%rip)        # b78 <yypop_buffer_state+0x78>
     b78:	|      0f b6 02             	movzbl (%rdx),%eax
     b7b:	|      48 89 15 00 00 00 00 	mov    %rdx,0x0(%rip)        # b82 <yypop_buffer_state+0x82>
     b82:	|      88 05 00 00 00 00    	mov    %al,0x0(%rip)        # b88 <yypop_buffer_state+0x88>
     b88:	\----> 5b                   	pop    %rbx
     b89:	       5d                   	pop    %rbp
     b8a:	       41 5c                	pop    %r12
     b8c:	       c3                   	ret    
     b8d:	       0f 1f 00             	nopl   (%rax)

0000000000000b90 <yy_scan_buffer>:
     b90:	          f3 0f 1e fa          	endbr64 
     b94:	          41 54                	push   %r12
     b96:	          55                   	push   %rbp
     b97:	          53                   	push   %rbx
     b98:	          48 83 fe 01          	cmp    $0x1,%rsi
     b9c:	/-------- 76 6a                	jbe    c08 <yy_scan_buffer+0x78>
     b9e:	|         80 7c 37 fe 00       	cmpb   $0x0,-0x2(%rdi,%rsi,1)
     ba3:	|         48 89 fd             	mov    %rdi,%rbp
     ba6:	|         48 89 f3             	mov    %rsi,%rbx
     ba9:	+-------- 75 5d                	jne    c08 <yy_scan_buffer+0x78>
     bab:	|         80 7c 37 ff 00       	cmpb   $0x0,-0x1(%rdi,%rsi,1)
     bb0:	+-------- 75 56                	jne    c08 <yy_scan_buffer+0x78>
     bb2:	|         bf 40 00 00 00       	mov    $0x40,%edi
     bb7:	|     /-- e8 00 00 00 00       	call   bbc <yy_scan_buffer+0x2c>
     bbc:	|     \-> 49 89 c4             	mov    %rax,%r12
     bbf:	|         48 85 c0             	test   %rax,%rax
     bc2:	|  /----- 74 4f                	je     c13 <yy_scan_buffer+0x83>
     bc4:	|  |      83 eb 02             	sub    $0x2,%ebx
     bc7:	|  |      48 89 68 08          	mov    %rbp,0x8(%rax)
     bcb:	|  |      48 89 c7             	mov    %rax,%rdi
     bce:	|  |      89 58 18             	mov    %ebx,0x18(%rax)
     bd1:	|  |      48 89 68 10          	mov    %rbp,0x10(%rax)
     bd5:	|  |      89 58 1c             	mov    %ebx,0x1c(%rax)
     bd8:	|  |      48 c7 00 00 00 00 00 	movq   $0x0,(%rax)
     bdf:	|  |      48 c7 40 20 00 00 00 	movq   $0x0,0x20(%rax)
     be6:	|  |      00 
     be7:	|  |      c7 40 28 01 00 00 00 	movl   $0x1,0x28(%rax)
     bee:	|  |      48 c7 40 34 00 00 00 	movq   $0x0,0x34(%rax)
     bf5:	|  |      00 
     bf6:	|  |  /-- e8 00 00 00 00       	call   bfb <yy_scan_buffer+0x6b>
     bfb:	|  |  \-> 4c 89 e0             	mov    %r12,%rax
     bfe:	|  |      5b                   	pop    %rbx
     bff:	|  |      5d                   	pop    %rbp
     c00:	|  |      41 5c                	pop    %r12
     c02:	|  |      c3                   	ret    
     c03:	|  |      0f 1f 44 00 00       	nopl   0x0(%rax,%rax,1)
     c08:	\--|----> 45 31 e4             	xor    %r12d,%r12d
     c0b:	   |      5b                   	pop    %rbx
     c0c:	   |      5d                   	pop    %rbp
     c0d:	   |      4c 89 e0             	mov    %r12,%rax
     c10:	   |      41 5c                	pop    %r12
     c12:	   |      c3                   	ret    
     c13:	   \----> 48 8d 3d 00 00 00 00 	lea    0x0(%rip),%rdi        # c1a <yy_scan_buffer+0x8a>
     c1a:	          e8 01 f5 ff ff       	call   120 <yy_fatal_error>
     c1f:	          90                   	nop

0000000000000c20 <yy_scan_bytes>:
     c20:	          f3 0f 1e fa          	endbr64 
     c24:	          41 54                	push   %r12
     c26:	          49 89 fc             	mov    %rdi,%r12
     c29:	          55                   	push   %rbp
     c2a:	          53                   	push   %rbx
     c2b:	          48 63 de             	movslq %esi,%rbx
     c2e:	          8d 6b 02             	lea    0x2(%rbx),%ebp
     c31:	          48 63 ed             	movslq %ebp,%rbp
     c34:	          48 89 ef             	mov    %rbp,%rdi
     c37:	      /-- e8 00 00 00 00       	call   c3c <yy_scan_bytes+0x1c>
     c3c:	      \-> 48 85 c0             	test   %rax,%rax
     c3f:	/-------- 74 37                	je     c78 <yy_scan_bytes+0x58>
     c41:	|         48 89 c7             	mov    %rax,%rdi
     c44:	|         85 db                	test   %ebx,%ebx
     c46:	|  /----- 7e 0e                	jle    c56 <yy_scan_bytes+0x36>
     c48:	|  |      48 89 da             	mov    %rbx,%rdx
     c4b:	|  |      4c 89 e6             	mov    %r12,%rsi
     c4e:	|  |  /-- e8 00 00 00 00       	call   c53 <yy_scan_bytes+0x33>
     c53:	|  |  \-> 48 89 c7             	mov    %rax,%rdi
     c56:	|  \----> c6 44 1f 01 00       	movb   $0x0,0x1(%rdi,%rbx,1)
     c5b:	|         48 89 ee             	mov    %rbp,%rsi
     c5e:	|         c6 04 1f 00          	movb   $0x0,(%rdi,%rbx,1)
     c62:	|     /-- e8 00 00 00 00       	call   c67 <yy_scan_bytes+0x47>
     c67:	|     \-> 48 85 c0             	test   %rax,%rax
     c6a:	|     /-- 74 18                	je     c84 <yy_scan_bytes+0x64>
     c6c:	|     |   c7 40 20 01 00 00 00 	movl   $0x1,0x20(%rax)
     c73:	|     |   5b                   	pop    %rbx
     c74:	|     |   5d                   	pop    %rbp
     c75:	|     |   41 5c                	pop    %r12
     c77:	|     |   c3                   	ret    
     c78:	\-----|-> 48 8d 3d 00 00 00 00 	lea    0x0(%rip),%rdi        # c7f <yy_scan_bytes+0x5f>
     c7f:	      |   e8 9c f4 ff ff       	call   120 <yy_fatal_error>
     c84:	      \-> 48 8d 3d 00 00 00 00 	lea    0x0(%rip),%rdi        # c8b <yy_scan_bytes+0x6b>
     c8b:	          e8 90 f4 ff ff       	call   120 <yy_fatal_error>

0000000000000c90 <yy_scan_string>:
     c90:	    f3 0f 1e fa          	endbr64 
     c94:	    55                   	push   %rbp
     c95:	    48 89 fd             	mov    %rdi,%rbp
     c98:	/-- e8 00 00 00 00       	call   c9d <yy_scan_string+0xd>
     c9d:	\-> 48 89 ef             	mov    %rbp,%rdi
     ca0:	    5d                   	pop    %rbp
     ca1:	    89 c6                	mov    %eax,%esi
     ca3:	    e9 78 ff ff ff       	jmp    c20 <yy_scan_bytes>
     ca8:	    0f 1f 84 00 00 00 00 	nopl   0x0(%rax,%rax,1)
     caf:	    00 

0000000000000cb0 <yyget_lineno>:
     cb0:	f3 0f 1e fa          	endbr64 
     cb4:	8b 05 00 00 00 00    	mov    0x0(%rip),%eax        # cba <yyget_lineno+0xa>
     cba:	c3                   	ret    
     cbb:	0f 1f 44 00 00       	nopl   0x0(%rax,%rax,1)

0000000000000cc0 <yyget_in>:
     cc0:	f3 0f 1e fa          	endbr64 
     cc4:	48 8b 05 00 00 00 00 	mov    0x0(%rip),%rax        # ccb <yyget_in+0xb>
     ccb:	c3                   	ret    
     ccc:	0f 1f 40 00          	nopl   0x0(%rax)

0000000000000cd0 <yyget_out>:
     cd0:	f3 0f 1e fa          	endbr64 
     cd4:	48 8b 05 00 00 00 00 	mov    0x0(%rip),%rax        # cdb <yyget_out+0xb>
     cdb:	c3                   	ret    
     cdc:	0f 1f 40 00          	nopl   0x0(%rax)

0000000000000ce0 <yyget_leng>:
     ce0:	f3 0f 1e fa          	endbr64 
     ce4:	8b 05 00 00 00 00    	mov    0x0(%rip),%eax        # cea <yyget_leng+0xa>
     cea:	c3                   	ret    
     ceb:	0f 1f 44 00 00       	nopl   0x0(%rax,%rax,1)

0000000000000cf0 <yyget_text>:
     cf0:	f3 0f 1e fa          	endbr64 
     cf4:	48 8b 05 00 00 00 00 	mov    0x0(%rip),%rax        # cfb <yyget_text+0xb>
     cfb:	c3                   	ret    
     cfc:	0f 1f 40 00          	nopl   0x0(%rax)

0000000000000d00 <yyset_lineno>:
     d00:	f3 0f 1e fa          	endbr64 
     d04:	89 3d 00 00 00 00    	mov    %edi,0x0(%rip)        # d0a <yyset_lineno+0xa>
     d0a:	c3                   	ret    
     d0b:	0f 1f 44 00 00       	nopl   0x0(%rax,%rax,1)

0000000000000d10 <yyset_in>:
     d10:	f3 0f 1e fa          	endbr64 
     d14:	48 89 3d 00 00 00 00 	mov    %rdi,0x0(%rip)        # d1b <yyset_in+0xb>
     d1b:	c3                   	ret    
     d1c:	0f 1f 40 00          	nopl   0x0(%rax)

0000000000000d20 <yyset_out>:
     d20:	f3 0f 1e fa          	endbr64 
     d24:	48 89 3d 00 00 00 00 	mov    %rdi,0x0(%rip)        # d2b <yyset_out+0xb>
     d2b:	c3                   	ret    
     d2c:	0f 1f 40 00          	nopl   0x0(%rax)

0000000000000d30 <yyget_debug>:
     d30:	f3 0f 1e fa          	endbr64 
     d34:	8b 05 00 00 00 00    	mov    0x0(%rip),%eax        # d3a <yyget_debug+0xa>
     d3a:	c3                   	ret    
     d3b:	0f 1f 44 00 00       	nopl   0x0(%rax,%rax,1)

0000000000000d40 <yyset_debug>:
     d40:	f3 0f 1e fa          	endbr64 
     d44:	89 3d 00 00 00 00    	mov    %edi,0x0(%rip)        # d4a <yyset_debug+0xa>
     d4a:	c3                   	ret    
     d4b:	0f 1f 44 00 00       	nopl   0x0(%rax,%rax,1)

0000000000000d50 <yylex_destroy>:
     d50:	             f3 0f 1e fa          	endbr64 
     d54:	             55                   	push   %rbp
     d55:	             53                   	push   %rbx
     d56:	             48 83 ec 08          	sub    $0x8,%rsp
     d5a:	             48 8b 2d 00 00 00 00 	mov    0x0(%rip),%rbp        # d61 <yylex_destroy+0x11>
     d61:	             48 85 ed             	test   %rbp,%rbp
     d64:	      /----- 75 1b                	jne    d81 <yylex_destroy+0x31>
     d66:	/-----|----- eb 2d                	jmp    d95 <yylex_destroy+0x45>
     d68:	|     |      0f 1f 84 00 00 00 00 	nopl   0x0(%rax,%rax,1)
     d6f:	|     |      00 
     d70:	|  /--|--/-X e8 00 00 00 00       	call   d75 <yylex_destroy+0x25>
     d75:	|  |  |  \-> 48 c7 03 00 00 00 00 	movq   $0x0,(%rbx)
     d7c:	|  |  +----- e8 00 00 00 00       	call   d81 <yylex_destroy+0x31>
     d81:	|  |  \----> 48 8b 05 00 00 00 00 	mov    0x0(%rip),%rax        # d88 <yylex_destroy+0x38>
     d88:	|  |         48 8d 5c c5 00       	lea    0x0(%rbp,%rax,8),%rbx
     d8d:	|  |         48 8b 3b             	mov    (%rbx),%rdi
     d90:	|  |         48 85 ff             	test   %rdi,%rdi
     d93:	|  \-------- 75 db                	jne    d70 <yylex_destroy+0x20>
     d95:	\----------> 48 89 ef             	mov    %rbp,%rdi
     d98:	         /-- e8 00 00 00 00       	call   d9d <yylex_destroy+0x4d>
     d9d:	         \-> 31 c0                	xor    %eax,%eax
     d9f:	             48 c7 05 00 00 00 00 	movq   $0x0,0x0(%rip)        # daa <yylex_destroy+0x5a>
     da6:	             00 00 00 00 
     daa:	             48 c7 05 00 00 00 00 	movq   $0x0,0x0(%rip)        # db5 <yylex_destroy+0x65>
     db1:	             00 00 00 00 
     db5:	             48 c7 05 00 00 00 00 	movq   $0x0,0x0(%rip)        # dc0 <yylex_destroy+0x70>
     dbc:	             00 00 00 00 
     dc0:	             48 c7 05 00 00 00 00 	movq   $0x0,0x0(%rip)        # dcb <yylex_destroy+0x7b>
     dc7:	             00 00 00 00 
     dcb:	             c7 05 00 00 00 00 00 	movl   $0x0,0x0(%rip)        # dd5 <yylex_destroy+0x85>
     dd2:	             00 00 00 
     dd5:	             c7 05 00 00 00 00 00 	movl   $0x0,0x0(%rip)        # ddf <yylex_destroy+0x8f>
     ddc:	             00 00 00 
     ddf:	             48 c7 05 00 00 00 00 	movq   $0x0,0x0(%rip)        # dea <yylex_destroy+0x9a>
     de6:	             00 00 00 00 
     dea:	             48 c7 05 00 00 00 00 	movq   $0x0,0x0(%rip)        # df5 <yylex_destroy+0xa5>
     df1:	             00 00 00 00 
     df5:	             48 83 c4 08          	add    $0x8,%rsp
     df9:	             5b                   	pop    %rbx
     dfa:	             5d                   	pop    %rbp
     dfb:	             c3                   	ret    
     dfc:	             0f 1f 40 00          	nopl   0x0(%rax)

0000000000000e00 <yyalloc>:
     e00:	    f3 0f 1e fa          	endbr64 
     e04:	/-- e9 00 00 00 00       	jmp    e09 <yyalloc+0x9>
     e09:	\-> 0f 1f 80 00 00 00 00 	nopl   0x0(%rax)

0000000000000e10 <yyrealloc>:
     e10:	    f3 0f 1e fa          	endbr64 
     e14:	/-- e9 00 00 00 00       	jmp    e19 <yyrealloc+0x9>
     e19:	\-> 0f 1f 80 00 00 00 00 	nopl   0x0(%rax)

0000000000000e20 <yyfree>:
     e20:	    f3 0f 1e fa          	endbr64 
     e24:	/-- e9 00 00 00 00       	jmp    e29 <yyfree+0x9>
     e29:	\-> 0f 1f 80 00 00 00 00 	nopl   0x0(%rax)

0000000000000e30 <yyerror>:
     e30:	    f3 0f 1e fa          	endbr64 
     e34:	/-- e9 00 00 00 00       	jmp    e39 <yyerror+0x9>
     e39:	\-> 0f 1f 80 00 00 00 00 	nopl   0x0(%rax)

0000000000000e40 <multiline_comment>:
     e40:	                   f3 0f 1e fa          	endbr64 
     e44:	                   41 54                	push   %r12
     e46:	                   53                   	push   %rbx
     e47:	                   48 8d 1d 00 00 00 00 	lea    0x0(%rip),%rbx        # e4e <multiline_comment+0xe>
     e4e:	                   48 83 ec 08          	sub    $0x8,%rsp
     e52:	   /-------------- eb 31                	jmp    e85 <multiline_comment+0x45>
     e54:	   |               0f 1f 40 00          	nopl   0x0(%rax)
     e58:	   |        /----> 84 c0                	test   %al,%al
     e5a:	/--|--------|----- 0f 84 08 01 00 00    	je     f68 <multiline_comment+0x128>
     e60:	|  |        |      44 0f be e0          	movsbl %al,%r12d
     e64:	|  |        |      48 8b 35 00 00 00 00 	mov    0x0(%rip),%rsi        # e6b <multiline_comment+0x2b>
     e6b:	|  |        |      44 89 e7             	mov    %r12d,%edi
     e6e:	|  |        |  /-- e8 00 00 00 00       	call   e73 <multiline_comment+0x33>
     e73:	|  |        |  \-> 44 89 e2             	mov    %r12d,%edx
     e76:	|  |        |      48 89 de             	mov    %rbx,%rsi
     e79:	|  |        |      bf 01 00 00 00       	mov    $0x1,%edi
     e7e:	|  |        |      31 c0                	xor    %eax,%eax
     e80:	|  +--------|----- e8 00 00 00 00       	call   e85 <multiline_comment+0x45>
     e85:	|  >--------|----> e8 c6 fa ff ff       	call   950 <input>
     e8a:	|  |        |      3c 2a                	cmp    $0x2a,%al
     e8c:	|  |        \----- 75 ca                	jne    e58 <multiline_comment+0x18>
     e8e:	|  |               e8 bd fa ff ff       	call   950 <input>
     e93:	|  |               41 89 c1             	mov    %eax,%r9d
     e96:	|  |               3c 2f                	cmp    $0x2f,%al
     e98:	|  |  /----------- 0f 84 d6 00 00 00    	je     f74 <multiline_comment+0x134>
     e9e:	|  |  |            0f b6 05 00 00 00 00 	movzbl 0x0(%rip),%eax        # ea5 <multiline_comment+0x65>
     ea5:	|  |  |            48 8b 3d 00 00 00 00 	mov    0x0(%rip),%rdi        # eac <multiline_comment+0x6c>
     eac:	|  |  |            4c 8b 15 00 00 00 00 	mov    0x0(%rip),%r10        # eb3 <multiline_comment+0x73>
     eb3:	|  |  |            48 8b 15 00 00 00 00 	mov    0x0(%rip),%rdx        # eba <multiline_comment+0x7a>
     eba:	|  |  |            88 07                	mov    %al,(%rdi)
     ebc:	|  |  |            48 8b 05 00 00 00 00 	mov    0x0(%rip),%rax        # ec3 <multiline_comment+0x83>
     ec3:	|  |  |            4c 8d 04 d0          	lea    (%rax,%rdx,8),%r8
     ec7:	|  |  |            49 8b 08             	mov    (%r8),%rcx
     eca:	|  |  |            4c 8b 61 08          	mov    0x8(%rcx),%r12
     ece:	|  |  |            49 8d 74 24 02       	lea    0x2(%r12),%rsi
     ed3:	|  |  |            48 39 f7             	cmp    %rsi,%rdi
     ed6:	|  |  |  /-------- 73 66                	jae    f3e <multiline_comment+0xfe>
     ed8:	|  |  |  |         48 63 41 18          	movslq 0x18(%rcx),%rax
     edc:	|  |  |  |         49 89 c3             	mov    %rax,%r11
     edf:	|  |  |  |         49 8d 54 04 02       	lea    0x2(%r12,%rax,1),%rdx
     ee4:	|  |  |  |         8b 05 00 00 00 00    	mov    0x0(%rip),%eax        # eea <multiline_comment+0xaa>
     eea:	|  |  |  |         83 c0 02             	add    $0x2,%eax
     eed:	|  |  |  |         48 98                	cltq   
     eef:	|  |  |  |         4c 01 e0             	add    %r12,%rax
     ef2:	|  |  |  |         49 39 c4             	cmp    %rax,%r12
     ef5:	|  |  |  |  /----- 73 2b                	jae    f22 <multiline_comment+0xe2>
     ef7:	|  |  |  |  |      66 0f 1f 84 00 00 00 	nopw   0x0(%rax,%rax,1)
     efe:	|  |  |  |  |      00 00 
     f00:	|  |  |  |  |  /-> 0f b6 48 ff          	movzbl -0x1(%rax),%ecx
     f04:	|  |  |  |  |  |   48 83 e8 01          	sub    $0x1,%rax
     f08:	|  |  |  |  |  |   48 83 ea 01          	sub    $0x1,%rdx
     f0c:	|  |  |  |  |  |   88 0a                	mov    %cl,(%rdx)
     f0e:	|  |  |  |  |  |   49 8b 08             	mov    (%r8),%rcx
     f11:	|  |  |  |  |  |   48 8b 71 08          	mov    0x8(%rcx),%rsi
     f15:	|  |  |  |  |  |   48 39 f0             	cmp    %rsi,%rax
     f18:	|  |  |  |  |  \-- 77 e6                	ja     f00 <multiline_comment+0xc0>
     f1a:	|  |  |  |  |      44 8b 59 18          	mov    0x18(%rcx),%r11d
     f1e:	|  |  |  |  |      48 83 c6 02          	add    $0x2,%rsi
     f22:	|  |  |  |  \----> 48 29 c2             	sub    %rax,%rdx
     f25:	|  |  |  |         44 89 1d 00 00 00 00 	mov    %r11d,0x0(%rip)        # f2c <multiline_comment+0xec>
     f2c:	|  |  |  |         48 63 d2             	movslq %edx,%rdx
     f2f:	|  |  |  |         44 89 59 1c          	mov    %r11d,0x1c(%rcx)
     f33:	|  |  |  |         48 01 d7             	add    %rdx,%rdi
     f36:	|  |  |  |         49 01 d2             	add    %rdx,%r10
     f39:	|  |  |  |         48 39 f7             	cmp    %rsi,%rdi
     f3c:	|  |  |  |     /-- 72 4e                	jb     f8c <multiline_comment+0x14c>
     f3e:	|  |  |  \-----|-> 44 88 4f ff          	mov    %r9b,-0x1(%rdi)
     f42:	|  |  |        |   4c 89 15 00 00 00 00 	mov    %r10,0x0(%rip)        # f49 <multiline_comment+0x109>
     f49:	|  |  |        |   0f b6 47 ff          	movzbl -0x1(%rdi),%eax
     f4d:	|  |  |        |   88 05 00 00 00 00    	mov    %al,0x0(%rip)        # f53 <multiline_comment+0x113>
     f53:	|  |  |        |   48 8d 47 ff          	lea    -0x1(%rdi),%rax
     f57:	|  |  |        |   48 89 05 00 00 00 00 	mov    %rax,0x0(%rip)        # f5e <multiline_comment+0x11e>
     f5e:	|  \--|--------|-- e9 22 ff ff ff       	jmp    e85 <multiline_comment+0x45>
     f63:	|     |        |   0f 1f 44 00 00       	nopl   0x0(%rax,%rax,1)
     f68:	\-----|--------|-> 48 83 c4 08          	add    $0x8,%rsp
     f6c:	      |        |   5b                   	pop    %rbx
     f6d:	      |        |   41 5c                	pop    %r12
     f6f:	      |        |   e9 dc f9 ff ff       	jmp    950 <input>
     f74:	      \--------|-> 48 8b 35 00 00 00 00 	mov    0x0(%rip),%rsi        # f7b <multiline_comment+0x13b>
     f7b:	               |   48 83 c4 08          	add    $0x8,%rsp
     f7f:	               |   bf 2f 00 00 00       	mov    $0x2f,%edi
     f84:	               |   5b                   	pop    %rbx
     f85:	               |   41 5c                	pop    %r12
     f87:	               +-- e9 00 00 00 00       	jmp    f8c <multiline_comment+0x14c>
     f8c:	               \-> 48 8d 3d 00 00 00 00 	lea    0x0(%rip),%rdi        # f93 <multiline_comment+0x153>
     f93:	                   e8 88 f1 ff ff       	call   120 <yy_fatal_error>
     f98:	                   0f 1f 84 00 00 00 00 	nopl   0x0(%rax,%rax,1)
     f9f:	                   00 

0000000000000fa0 <yylex>:
     fa0:	                                                       f3 0f 1e fa          	endbr64 
     fa4:	                                                       41 57                	push   %r15
     fa6:	                                                       41 56                	push   %r14
     fa8:	                                                       41 55                	push   %r13
     faa:	                                                       41 54                	push   %r12
     fac:	                                                       55                   	push   %rbp
     fad:	                                                       53                   	push   %rbx
     fae:	                                                       48 83 ec 18          	sub    $0x18,%rsp
     fb2:	                                                       8b 0d 00 00 00 00    	mov    0x0(%rip),%ecx        # fb8 <yylex+0x18>
     fb8:	                                                       85 c9                	test   %ecx,%ecx
     fba:	                                       /-------------- 0f 84 57 01 00 00    	je     1117 <yylex+0x177>
     fc0:	                                       |               4c 8b 2d 00 00 00 00 	mov    0x0(%rip),%r13        # fc7 <yylex+0x27>
     fc7:	                                       |               0f b6 0d 00 00 00 00 	movzbl 0x0(%rip),%ecx        # fce <yylex+0x2e>
     fce:	                                    /--|-------------> 4c 89 ee             	mov    %r13,%rsi
     fd1:	                                    |  |               48 8d 1d 00 00 00 00 	lea    0x0(%rip),%rbx        # fd8 <yylex+0x38>
     fd8:	                                    |  |               4c 8d 15 00 00 00 00 	lea    0x0(%rip),%r10        # fdf <yylex+0x3f>
     fdf:	                                    |  |               45 89 c5             	mov    %r8d,%r13d
     fe2:	                                    |  |               48 8d 2d 00 00 00 00 	lea    0x0(%rip),%rbp        # fe9 <yylex+0x49>
     fe9:	                                    |  |               4c 8d 25 00 00 00 00 	lea    0x0(%rip),%r12        # ff0 <yylex+0x50>
     ff0:	                                    |  |               4c 8d 35 00 00 00 00 	lea    0x0(%rip),%r14        # ff7 <yylex+0x57>
     ff7:	            /-----------------------|--|-------------> 88 0e                	mov    %cl,(%rsi)
     ff9:	            |                       |  |               8b 3d 00 00 00 00    	mov    0x0(%rip),%edi        # fff <yylex+0x5f>
     fff:	            |                       |  |               45 89 e8             	mov    %r13d,%r8d
    1002:	            |                       |  |               49 89 f5             	mov    %rsi,%r13
    1005:	            |                       |  |               48 89 34 24          	mov    %rsi,(%rsp)
    1009:	   /--------|-----------------------|--|-------------> 48 63 d7             	movslq %edi,%rdx
    100c:	   |        |                       |  |               31 f6                	xor    %esi,%esi
    100e:	   |        |                       |  |               41 bb 01 00 00 00    	mov    $0x1,%r11d
    1014:	   |        |                       |  |               0f bf 04 53          	movswl (%rbx,%rdx,2),%eax
    1018:	   |        |                       |  |               0f 1f 84 00 00 00 00 	nopl   0x0(%rax,%rax,1)
    101f:	   |        |                       |  |               00 
    1020:	   |        |                       |  |  /----------> 4c 8d 0d 00 00 00 00 	lea    0x0(%rip),%r9        # 1027 <yylex+0x87>
    1027:	   |        |                       |  |  |            66 41 83 3c 52 00    	cmpw   $0x0,(%r10,%rdx,2)
    102d:	   |        |                       |  |  |            45 0f b6 0c 09       	movzbl (%r9,%rcx,1),%r9d
    1032:	   |        |                       |  |  |            44 0f 45 c7          	cmovne %edi,%r8d
    1036:	   |        |                       |  |  |            4d 0f 45 fd          	cmovne %r13,%r15
    103a:	   |        |                       |  |  |            41 0f 45 f3          	cmovne %r11d,%esi
    103e:	   |        |                       |  |  |            44 01 c8             	add    %r9d,%eax
    1041:	   |        |                       |  |  |            48 98                	cltq   
    1043:	   |        |                       |  |  |            0f bf 4c 45 00       	movswl 0x0(%rbp,%rax,2),%ecx
    1048:	   |        |                       |  |  |            39 cf                	cmp    %ecx,%edi
    104a:	   |        |                       |  |  |  /-------- 74 29                	je     1075 <yylex+0xd5>
    104c:	   |        |                       |  |  |  |         0f 1f 40 00          	nopl   0x0(%rax)
    1050:	   |        |                       |  |  |  |  /----> 41 0f bf 14 54       	movswl (%r12,%rdx,2),%edx
    1055:	   |        |                       |  |  |  |  |      89 d1                	mov    %edx,%ecx
    1057:	   |        |                       |  |  |  |  |      66 83 fa 49          	cmp    $0x49,%dx
    105b:	   |        |                       |  |  |  |  |  /-- 7e 05                	jle    1062 <yylex+0xc2>
    105d:	   |        |                       |  |  |  |  |  |   47 0f b6 0c 0e       	movzbl (%r14,%r9,1),%r9d
    1062:	   |        |                       |  |  |  |  |  \-> 48 63 d2             	movslq %edx,%rdx
    1065:	   |        |                       |  |  |  |  |      0f bf 04 53          	movswl (%rbx,%rdx,2),%eax
    1069:	   |        |                       |  |  |  |  |      44 01 c8             	add    %r9d,%eax
    106c:	   |        |                       |  |  |  |  |      48 98                	cltq   
    106e:	   |        |                       |  |  |  |  |      66 3b 4c 45 00       	cmp    0x0(%rbp,%rax,2),%cx
    1073:	   |        |                       |  |  |  |  \----- 75 db                	jne    1050 <yylex+0xb0>
    1075:	   |        |                       |  |  |  \-------> 48 8d 3d 00 00 00 00 	lea    0x0(%rip),%rdi        # 107c <yylex+0xdc>
    107c:	   |        |                       |  |  |            49 83 c5 01          	add    $0x1,%r13
    1080:	   |        |                       |  |  |            48 0f bf 14 47       	movswq (%rdi,%rax,2),%rdx
    1085:	   |        |                       |  |  |            0f bf 04 53          	movswl (%rbx,%rdx,2),%eax
    1089:	   |        |                       |  |  |            89 d7                	mov    %edx,%edi
    108b:	   |        |                       |  |  |            66 83 f8 5d          	cmp    $0x5d,%ax
    108f:	   |        |                       |  |  |        /-- 74 0f                	je     10a0 <yylex+0x100>
    1091:	   |        |                       |  |  |        |   41 0f b6 4d 00       	movzbl 0x0(%r13),%ecx
    1096:	   |        |                       |  |  \--------|-- eb 88                	jmp    1020 <yylex+0x80>
    1098:	   |        |                       |  |           |   0f 1f 84 00 00 00 00 	nopl   0x0(%rax,%rax,1)
    109f:	   |        |                       |  |           |   00 
    10a0:	   |        |                       |  |           \-> 40 84 f6             	test   %sil,%sil
    10a3:	   |        |                       |  |           /-- 74 0e                	je     10b3 <yylex+0x113>
    10a5:	   |        |                       |  |           |   44 89 05 00 00 00 00 	mov    %r8d,0x0(%rip)        # 10ac <yylex+0x10c>
    10ac:	   |        |                       |  |           |   4c 89 3d 00 00 00 00 	mov    %r15,0x0(%rip)        # 10b3 <yylex+0x113>
    10b3:	   |        |                       |  |           \-> 48 8b 34 24          	mov    (%rsp),%rsi
    10b7:	   |        |                       |  |               48 8d 0d 00 00 00 00 	lea    0x0(%rip),%rcx        # 10be <yylex+0x11e>
    10be:	/--|--------|-----------------------|--|-------------> 41 0f bf 04 52       	movswl (%r10,%rdx,2),%eax
    10c3:	|  |        |                       |  |               85 c0                	test   %eax,%eax
    10c5:	|  |        |                       |  |           /-- 75 13                	jne    10da <yylex+0x13a>
    10c7:	|  |        |                       |  |           |   48 63 05 00 00 00 00 	movslq 0x0(%rip),%rax        # 10ce <yylex+0x12e>
    10ce:	|  |        |                       |  |           |   4c 8b 2d 00 00 00 00 	mov    0x0(%rip),%r13        # 10d5 <yylex+0x135>
    10d5:	|  |        |                       |  |           |   41 0f bf 04 42       	movswl (%r10,%rax,2),%eax
    10da:	|  |        |                       |  |           \-> 4c 89 ea             	mov    %r13,%rdx
    10dd:	|  |        |                       |  |               48 89 35 00 00 00 00 	mov    %rsi,0x0(%rip)        # 10e4 <yylex+0x144>
    10e4:	|  |        |                       |  |               48 29 f2             	sub    %rsi,%rdx
    10e7:	|  |        |                       |  |               4c 89 2d 00 00 00 00 	mov    %r13,0x0(%rip)        # 10ee <yylex+0x14e>
    10ee:	|  |        |                       |  |               89 15 00 00 00 00    	mov    %edx,0x0(%rip)        # 10f4 <yylex+0x154>
    10f4:	|  |        |                       |  |               41 0f b6 55 00       	movzbl 0x0(%r13),%edx
    10f9:	|  |        |                       |  |               41 c6 45 00 00       	movb   $0x0,0x0(%r13)
    10fe:	|  |        |                       |  |               88 15 00 00 00 00    	mov    %dl,0x0(%rip)        # 1104 <yylex+0x164>
    1104:	|  |     /--|-----------------------|--|-------------> 83 f8 18             	cmp    $0x18,%eax
    1107:	|  |  /--|--|-----------------------|--|-------------- 0f 87 a3 04 00 00    	ja     15b0 <yylex+0x610>
    110d:	|  |  |  |  |                       |  |               48 63 04 81          	movslq (%rcx,%rax,4),%rax
    1111:	|  |  |  |  |                       |  |               48 01 c8             	add    %rcx,%rax
    1114:	|  |  |  |  |                       |  |               3e ff e0             	notrack jmp *%rax
    1117:	|  |  |  |  |                       |  \-------------> c7 05 00 00 00 00 01 	movl   $0x1,0x0(%rip)        # 1121 <yylex+0x181>
    111e:	|  |  |  |  |                       |                  00 00 00 
    1121:	|  |  |  |  |                       |                  8b 15 00 00 00 00    	mov    0x0(%rip),%edx        # 1127 <yylex+0x187>
    1127:	|  |  |  |  |                       |                  85 d2                	test   %edx,%edx
    1129:	|  |  |  |  |                       |              /-- 75 0a                	jne    1135 <yylex+0x195>
    112b:	|  |  |  |  |                       |              |   c7 05 00 00 00 00 01 	movl   $0x1,0x0(%rip)        # 1135 <yylex+0x195>
    1132:	|  |  |  |  |                       |              |   00 00 00 
    1135:	|  |  |  |  |                       |              \-> 48 83 3d 00 00 00 00 	cmpq   $0x0,0x0(%rip)        # 113d <yylex+0x19d>
    113c:	|  |  |  |  |                       |                  00 
    113d:	|  |  |  |  |           /-----------|----------------- 0f 84 4f 03 00 00    	je     1492 <yylex+0x4f2>
    1143:	|  |  |  |  |        /--|-----------|----------------> 48 83 3d 00 00 00 00 	cmpq   $0x0,0x0(%rip)        # 114b <yylex+0x1ab>
    114a:	|  |  |  |  |        |  |           |                  00 
    114b:	|  |  |  |  |        |  |     /-----|----------------- 0f 84 2e 03 00 00    	je     147f <yylex+0x4df>
    1151:	|  |  |  |  |        |  |  /--|-----|----------------> 48 8b 05 00 00 00 00 	mov    0x0(%rip),%rax        # 1158 <yylex+0x1b8>
    1158:	|  |  |  |  |        |  |  |  |     |                  48 85 c0             	test   %rax,%rax
    115b:	|  |  |  |  |        |  |  |  |     |              /-- 74 45                	je     11a2 <yylex+0x202>
    115d:	|  |  |  |  |        |  |  |  |     |              |   48 8b 15 00 00 00 00 	mov    0x0(%rip),%rdx        # 1164 <yylex+0x1c4>
    1164:	|  |  |  |  |        |  |  |  |     |              |   48 8b 04 d0          	mov    (%rax,%rdx,8),%rax
    1168:	|  |  |  |  |        |  |  |  |     |              |   48 85 c0             	test   %rax,%rax
    116b:	|  |  |  |  |        |  |  |  |     |              +-- 74 35                	je     11a2 <yylex+0x202>
    116d:	|  |  |  |  |        |  |  |  |     |           /--|-> 4c 8b 68 10          	mov    0x10(%rax),%r13
    1171:	|  |  |  |  |        |  |  |  |     |           |  |   8b 50 1c             	mov    0x1c(%rax),%edx
    1174:	|  |  |  |  |        |  |  |  |     |           |  |   48 8b 00             	mov    (%rax),%rax
    1177:	|  |  |  |  |        |  |  |  |     |           |  |   4c 89 2d 00 00 00 00 	mov    %r13,0x0(%rip)        # 117e <yylex+0x1de>
    117e:	|  |  |  |  |        |  |  |  |     |           |  |   48 89 05 00 00 00 00 	mov    %rax,0x0(%rip)        # 1185 <yylex+0x1e5>
    1185:	|  |  |  |  |        |  |  |  |     |           |  |   41 0f b6 4d 00       	movzbl 0x0(%r13),%ecx
    118a:	|  |  |  |  |        |  |  |  |     |           |  |   89 15 00 00 00 00    	mov    %edx,0x0(%rip)        # 1190 <yylex+0x1f0>
    1190:	|  |  |  |  |        |  |  |  |     |           |  |   4c 89 2d 00 00 00 00 	mov    %r13,0x0(%rip)        # 1197 <yylex+0x1f7>
    1197:	|  |  |  |  |        |  |  |  |     |           |  |   88 0d 00 00 00 00    	mov    %cl,0x0(%rip)        # 119d <yylex+0x1fd>
    119d:	|  |  |  |  |        |  |  |  |     \-----------|--|-- e9 2c fe ff ff       	jmp    fce <yylex+0x2e>
    11a2:	|  |  |  |  |        |  |  |  |                 |  \-> 44 89 04 24          	mov    %r8d,(%rsp)
    11a6:	|  |  |  |  |        |  |  |  |                 |      e8 a5 ef ff ff       	call   150 <yyensure_buffer_stack>
    11ab:	|  |  |  |  |        |  |  |  |                 |      48 8b 15 00 00 00 00 	mov    0x0(%rip),%rdx        # 11b2 <yylex+0x212>
    11b2:	|  |  |  |  |        |  |  |  |                 |      be 00 40 00 00       	mov    $0x4000,%esi
    11b7:	|  |  |  |  |        |  |  |  |                 |      48 8b 05 00 00 00 00 	mov    0x0(%rip),%rax        # 11be <yylex+0x21e>
    11be:	|  |  |  |  |        |  |  |  |                 |      48 8b 3d 00 00 00 00 	mov    0x0(%rip),%rdi        # 11c5 <yylex+0x225>
    11c5:	|  |  |  |  |        |  |  |  |                 |      48 8d 1c d0          	lea    (%rax,%rdx,8),%rbx
    11c9:	|  |  |  |  |        |  |  |  |                 |  /-- e8 00 00 00 00       	call   11ce <yylex+0x22e>
    11ce:	|  |  |  |  |        |  |  |  |                 |  \-> 44 8b 04 24          	mov    (%rsp),%r8d
    11d2:	|  |  |  |  |        |  |  |  |                 |      48 89 03             	mov    %rax,(%rbx)
    11d5:	|  |  |  |  |        |  |  |  |                 \----- eb 96                	jmp    116d <yylex+0x1cd>
    11d7:	|  |  |  |  |        |  |  |  |                        0f b6 05 00 00 00 00 	movzbl 0x0(%rip),%eax        # 11de <yylex+0x23e>
    11de:	|  |  |  |  |        |  |  |  |                        48 8b 3d 00 00 00 00 	mov    0x0(%rip),%rdi        # 11e5 <yylex+0x245>
    11e5:	|  |  |  |  |        |  |  |  |                        4c 89 ea             	mov    %r13,%rdx
    11e8:	|  |  |  |  |        |  |  |  |                        48 2b 15 00 00 00 00 	sub    0x0(%rip),%rdx        # 11ef <yylex+0x24f>
    11ef:	|  |  |  |  |        |  |  |  |                        41 88 45 00          	mov    %al,0x0(%r13)
    11f3:	|  |  |  |  |        |  |  |  |                        48 8b 05 00 00 00 00 	mov    0x0(%rip),%rax        # 11fa <yylex+0x25a>
    11fa:	|  |  |  |  |        |  |  |  |                        83 ea 01             	sub    $0x1,%edx
    11fd:	|  |  |  |  |        |  |  |  |                        48 8b 3c f8          	mov    (%rax,%rdi,8),%rdi
    1201:	|  |  |  |  |        |  |  |  |                        8b 47 38             	mov    0x38(%rdi),%eax
    1204:	|  |  |  |  |        |  |  |  |                        85 c0                	test   %eax,%eax
    1206:	|  |  |  |  |        |  |  |  |           /----------- 0f 84 99 02 00 00    	je     14a5 <yylex+0x505>
    120c:	|  |  |  |  |        |  |  |  |           |            48 63 05 00 00 00 00 	movslq 0x0(%rip),%rax        # 1213 <yylex+0x273>
    1213:	|  |  |  |  |        |  |  |  |     /-----|----------> 48 03 47 08          	add    0x8(%rdi),%rax
    1217:	|  |  |  |  |        |  |  |  |     |     |            48 39 05 00 00 00 00 	cmp    %rax,0x0(%rip)        # 121e <yylex+0x27e>
    121e:	|  |  |  |  |     /--|--|--|--|-----|-----|----------- 0f 86 98 03 00 00    	jbe    15bc <yylex+0x61c>
    1224:	|  |  |  |  |     |  |  |  |  |     |     |            44 89 44 24 08       	mov    %r8d,0x8(%rsp)
    1229:	|  |  |  |  |     |  |  |  |  |     |     |            48 89 34 24          	mov    %rsi,(%rsp)
    122d:	|  |  |  |  |     |  |  |  |  |     |     |            89 54 24 0c          	mov    %edx,0xc(%rsp)
    1231:	|  |  |  |  |     |  |  |  |  |     |     |            e8 1a f3 ff ff       	call   550 <yy_get_next_buffer>
    1236:	|  |  |  |  |     |  |  |  |  |     |     |            48 8b 34 24          	mov    (%rsp),%rsi
    123a:	|  |  |  |  |     |  |  |  |  |     |     |            44 8b 44 24 08       	mov    0x8(%rsp),%r8d
    123f:	|  |  |  |  |     |  |  |  |  |     |     |            4c 8d 15 00 00 00 00 	lea    0x0(%rip),%r10        # 1246 <yylex+0x2a6>
    1246:	|  |  |  |  |     |  |  |  |  |     |     |            83 f8 01             	cmp    $0x1,%eax
    1249:	|  |  |  |  |     |  |  |  |  |  /--|-----|----------- 0f 84 02 03 00 00    	je     1551 <yylex+0x5b1>
    124f:	|  |  |  |  |     |  |  |  |  |  |  |     |            48 63 54 24 0c       	movslq 0xc(%rsp),%rdx
    1254:	|  |  |  |  |     |  |  |  |  |  |  |     |            83 f8 02             	cmp    $0x2,%eax
    1257:	|  |  |  |  |     |  |  |  |  |  |  |  /--|----------- 0f 84 a6 02 00 00    	je     1503 <yylex+0x563>
    125d:	|  |  |  |  |     |  |  |  |  |  |  |  |  |            85 c0                	test   %eax,%eax
    125f:	|  |  |  |  |     |  |  |  |  |  |  |  |  |  /-------- 0f 84 60 02 00 00    	je     14c5 <yylex+0x525>
    1265:	|  |  |  |  |     |  |  |  |  |  |  |  |  |  |         45 89 c5             	mov    %r8d,%r13d
    1268:	|  |  |  |  |  /--|--|--|--|--|--|--|--|--|--|-------- e9 8b 00 00 00       	jmp    12f8 <yylex+0x358>
    126d:	|  |  |  |  |  |  |  |  |  |  |  |  |  |  |  |         31 c0                	xor    %eax,%eax
    126f:	|  |  |  |  |  |  |  |  |  |  |  |  |  |  |  |  /----> 48 83 c4 18          	add    $0x18,%rsp
    1273:	|  |  |  |  |  |  |  |  |  |  |  |  |  |  |  |  |      5b                   	pop    %rbx
    1274:	|  |  |  |  |  |  |  |  |  |  |  |  |  |  |  |  |      5d                   	pop    %rbp
    1275:	|  |  |  |  |  |  |  |  |  |  |  |  |  |  |  |  |      41 5c                	pop    %r12
    1277:	|  |  |  |  |  |  |  |  |  |  |  |  |  |  |  |  |      41 5d                	pop    %r13
    1279:	|  |  |  |  |  |  |  |  |  |  |  |  |  |  |  |  |      41 5e                	pop    %r14
    127b:	|  |  |  |  |  |  |  |  |  |  |  |  |  |  |  |  |      41 5f                	pop    %r15
    127d:	|  |  |  |  |  |  |  |  |  |  |  |  |  |  |  |  |      c3                   	ret    
    127e:	|  |  |  |  |  |  |  |  |  |  |  |  |  |  |  |  |      0f b6 05 00 00 00 00 	movzbl 0x0(%rip),%eax        # 1285 <yylex+0x2e5>
    1285:	|  |  |  |  |  |  |  |  |  |  |  |  |  |  |  |  |      48 63 15 00 00 00 00 	movslq 0x0(%rip),%rdx        # 128c <yylex+0x2ec>
    128c:	|  |  |  |  |  |  |  |  |  |  |  |  |  |  |  |  |      41 88 45 00          	mov    %al,0x0(%r13)
    1290:	|  |  |  |  |  |  |  |  |  |  |  |  |  |  |  |  |      4c 8b 2d 00 00 00 00 	mov    0x0(%rip),%r13        # 1297 <yylex+0x2f7>
    1297:	+--|--|--|--|--|--|--|--|--|--|--|--|--|--|--|--|----- e9 22 fe ff ff       	jmp    10be <yylex+0x11e>
    129c:	|  |  |  |  |  |  |  |  |  |  |  |  |  |  |  |  |      0f b6 05 00 00 00 00 	movzbl 0x0(%rip),%eax        # 12a3 <yylex+0x303>
    12a3:	|  |  |  |  |  |  |  |  |  |  |  |  |  |  |  |  |      48 89 f7             	mov    %rsi,%rdi
    12a6:	|  |  |  |  |  |  |  |  |  |  |  |  |  |  |  |  |      4c 89 ee             	mov    %r13,%rsi
    12a9:	|  |  |  |  |  |  |  |  |  |  |  |  |  |  |  |  |      45 89 c5             	mov    %r8d,%r13d
    12ac:	|  |  |  |  |  |  |  |  |  |  |  |  |  |  |  |  |      88 06                	mov    %al,(%rsi)
    12ae:	|  |  |  |  |  |  |  |  |  |  |  |  |  |  |  |  |      48 8d 46 ff          	lea    -0x1(%rsi),%rax
    12b2:	|  |  |  |  |  |  |  |  |  |  |  |  |  |  |  |  |      48 89 05 00 00 00 00 	mov    %rax,0x0(%rip)        # 12b9 <yylex+0x319>
    12b9:	|  |  |  |  |  |  |  |  |  |  |  |  |  |  |  |  |      48 29 f8             	sub    %rdi,%rax
    12bc:	|  |  |  |  |  |  |  |  |  |  |  |  |  |  |  |  |      48 89 3d 00 00 00 00 	mov    %rdi,0x0(%rip)        # 12c3 <yylex+0x323>
    12c3:	|  |  |  |  |  |  |  |  |  |  |  |  |  |  |  |  |      bf 01 00 00 00       	mov    $0x1,%edi
    12c8:	|  |  |  |  |  |  |  |  |  |  |  |  |  |  |  |  |      89 05 00 00 00 00    	mov    %eax,0x0(%rip)        # 12ce <yylex+0x32e>
    12ce:	|  |  |  |  |  |  |  |  |  |  |  |  |  |  |  |  |      0f b6 46 ff          	movzbl -0x1(%rsi),%eax
    12d2:	|  |  |  |  |  |  |  |  |  |  |  |  |  |  |  |  |      c6 46 ff 00          	movb   $0x0,-0x1(%rsi)
    12d6:	|  |  |  |  |  |  |  |  |  |  |  |  |  |  |  |  |      48 8b 15 00 00 00 00 	mov    0x0(%rip),%rdx        # 12dd <yylex+0x33d>
    12dd:	|  |  |  |  |  |  |  |  |  |  |  |  |  |  |  |  |      48 8d 35 00 00 00 00 	lea    0x0(%rip),%rsi        # 12e4 <yylex+0x344>
    12e4:	|  |  |  |  |  |  |  |  |  |  |  |  |  |  |  |  |      88 05 00 00 00 00    	mov    %al,0x0(%rip)        # 12ea <yylex+0x34a>
    12ea:	|  |  |  |  |  |  |  |  |  |  |  |  |  |  |  |  |      31 c0                	xor    %eax,%eax
    12ec:	|  |  |  |  |  |  |  |  |  |  |  |  |  |  |  |  |  /-- e8 00 00 00 00       	call   12f1 <yylex+0x351>
    12f1:	|  |  |  |  |  |  |  |  |  |  |  |  |  |  |  |  |  \-> 4c 8d 15 00 00 00 00 	lea    0x0(%rip),%r10        # 12f8 <yylex+0x358>
    12f8:	|  |  |  |  |  >--|--|--|--|--|--|--|--|--|--|--|----> 48 8b 35 00 00 00 00 	mov    0x0(%rip),%rsi        # 12ff <yylex+0x35f>
    12ff:	|  |  |  |  |  |  |  |  |  |  |  |  |  |  |  |  |      0f b6 0d 00 00 00 00 	movzbl 0x0(%rip),%ecx        # 1306 <yylex+0x366>
    1306:	|  |  |  |  +--|--|--|--|--|--|--|--|--|--|--|--|----- e9 ec fc ff ff       	jmp    ff7 <yylex+0x57>
    130b:	|  |  |  |  |  |  |  |  |  |  |  |  |  |  |  |  |      31 c0                	xor    %eax,%eax
    130d:	|  |  |  |  |  |  |  |  |  |  |  |  |  |  |  |  |      45 89 c5             	mov    %r8d,%r13d
    1310:	|  |  |  |  |  |  |  |  |  |  |  |  |  |  |  |  |  /-- e8 00 00 00 00       	call   1315 <yylex+0x375>
    1315:	|  |  |  |  |  |  |  |  |  |  |  |  |  |  |  |  |  \-> 4c 8d 15 00 00 00 00 	lea    0x0(%rip),%r10        # 131c <yylex+0x37c>
    131c:	|  |  |  |  |  +--|--|--|--|--|--|--|--|--|--|--|----- eb da                	jmp    12f8 <yylex+0x358>
    131e:	|  |  |  |  |  |  |  |  |  |  |  |  |  |  |  |  |      48 8d 3d 00 00 00 00 	lea    0x0(%rip),%rdi        # 1325 <yylex+0x385>
    1325:	|  |  |  |  |  |  |  |  |  |  |  |  |  |  |  |  |  /-- e8 00 00 00 00       	call   132a <yylex+0x38a>
    132a:	|  |  |  |  |  |  |  |  |  |  |  |  |  |  |  |  |  \-> b8 02 01 00 00       	mov    $0x102,%eax
    132f:	|  |  |  |  |  |  |  |  |  |  |  |  |  |  |  |  +----- e9 3b ff ff ff       	jmp    126f <yylex+0x2cf>
    1334:	|  |  |  |  |  |  |  |  |  |  |  |  |  |  |  |  |      b8 05 01 00 00       	mov    $0x105,%eax
    1339:	|  |  |  |  |  |  |  |  |  |  |  |  |  |  |  |  +----- e9 31 ff ff ff       	jmp    126f <yylex+0x2cf>
    133e:	|  |  |  |  |  |  |  |  |  |  |  |  |  |  |  |  |      b8 06 01 00 00       	mov    $0x106,%eax
    1343:	|  |  |  |  |  |  |  |  |  |  |  |  |  |  |  |  +----- e9 27 ff ff ff       	jmp    126f <yylex+0x2cf>
    1348:	|  |  |  |  |  |  |  |  |  |  |  |  |  |  |  |  |      b8 07 01 00 00       	mov    $0x107,%eax
    134d:	|  |  |  |  |  |  |  |  |  |  |  |  |  |  |  |  +----- e9 1d ff ff ff       	jmp    126f <yylex+0x2cf>
    1352:	|  |  |  |  |  |  |  |  |  |  |  |  |  |  |  |  |      b8 08 01 00 00       	mov    $0x108,%eax
    1357:	|  |  |  |  |  |  |  |  |  |  |  |  |  |  |  |  +----- e9 13 ff ff ff       	jmp    126f <yylex+0x2cf>
    135c:	|  |  |  |  |  |  |  |  |  |  |  |  |  |  |  |  |      b8 09 01 00 00       	mov    $0x109,%eax
    1361:	|  |  |  |  |  |  |  |  |  |  |  |  |  |  |  |  +----- e9 09 ff ff ff       	jmp    126f <yylex+0x2cf>
    1366:	|  |  |  |  |  |  |  |  |  |  |  |  |  |  |  |  |      b8 0a 01 00 00       	mov    $0x10a,%eax
    136b:	|  |  |  |  |  |  |  |  |  |  |  |  |  |  |  |  +----- e9 ff fe ff ff       	jmp    126f <yylex+0x2cf>
    1370:	|  |  |  |  |  |  |  |  |  |  |  |  |  |  |  |  |      b8 0b 01 00 00       	mov    $0x10b,%eax
    1375:	|  |  |  |  |  |  |  |  |  |  |  |  |  |  |  |  +----- e9 f5 fe ff ff       	jmp    126f <yylex+0x2cf>
    137a:	|  |  |  |  |  |  |  |  |  |  |  |  |  |  |  |  |      b8 0c 01 00 00       	mov    $0x10c,%eax
    137f:	|  |  |  |  |  |  |  |  |  |  |  |  |  |  |  |  +----- e9 eb fe ff ff       	jmp    126f <yylex+0x2cf>
    1384:	|  |  |  |  |  |  |  |  |  |  |  |  |  |  |  |  |      b8 0d 01 00 00       	mov    $0x10d,%eax
    1389:	|  |  |  |  |  |  |  |  |  |  |  |  |  |  |  |  +----- e9 e1 fe ff ff       	jmp    126f <yylex+0x2cf>
    138e:	|  |  |  |  |  |  |  |  |  |  |  |  |  |  |  |  |      b8 0e 01 00 00       	mov    $0x10e,%eax
    1393:	|  |  |  |  |  |  |  |  |  |  |  |  |  |  |  |  +----- e9 d7 fe ff ff       	jmp    126f <yylex+0x2cf>
    1398:	|  |  |  |  |  |  |  |  |  |  |  |  |  |  |  |  |      b8 0f 01 00 00       	mov    $0x10f,%eax
    139d:	|  |  |  |  |  |  |  |  |  |  |  |  |  |  |  |  +----- e9 cd fe ff ff       	jmp    126f <yylex+0x2cf>
    13a2:	|  |  |  |  |  |  |  |  |  |  |  |  |  |  |  |  |      b8 10 01 00 00       	mov    $0x110,%eax
    13a7:	|  |  |  |  |  |  |  |  |  |  |  |  |  |  |  |  +----- e9 c3 fe ff ff       	jmp    126f <yylex+0x2cf>
    13ac:	|  |  |  |  |  |  |  |  |  |  |  |  |  |  |  |  |      b8 11 01 00 00       	mov    $0x111,%eax
    13b1:	|  |  |  |  |  |  |  |  |  |  |  |  |  |  |  |  +----- e9 b9 fe ff ff       	jmp    126f <yylex+0x2cf>
    13b6:	|  |  |  |  |  |  |  |  |  |  |  |  |  |  |  |  |      b8 12 01 00 00       	mov    $0x112,%eax
    13bb:	|  |  |  |  |  |  |  |  |  |  |  |  |  |  |  |  +----- e9 af fe ff ff       	jmp    126f <yylex+0x2cf>
    13c0:	|  |  |  |  |  |  |  |  |  |  |  |  |  |  |  |  |      48 8b 3d 00 00 00 00 	mov    0x0(%rip),%rdi        # 13c7 <yylex+0x427>
    13c7:	|  |  |  |  |  |  |  |  |  |  |  |  |  |  |  |  |      31 f6                	xor    %esi,%esi
    13c9:	|  |  |  |  |  |  |  |  |  |  |  |  |  |  |  |  |  /-- e8 00 00 00 00       	call   13ce <yylex+0x42e>
    13ce:	|  |  |  |  |  |  |  |  |  |  |  |  |  |  |  |  |  \-> bf 01 00 00 00       	mov    $0x1,%edi
    13d3:	|  |  |  |  |  |  |  |  |  |  |  |  |  |  |  |  |      b8 01 00 00 00       	mov    $0x1,%eax
    13d8:	|  |  |  |  |  |  |  |  |  |  |  |  |  |  |  |  |      48 8d 35 00 00 00 00 	lea    0x0(%rip),%rsi        # 13df <yylex+0x43f>
    13df:	|  |  |  |  |  |  |  |  |  |  |  |  |  |  |  |  |  /-- e8 00 00 00 00       	call   13e4 <yylex+0x444>
    13e4:	|  |  |  |  |  |  |  |  |  |  |  |  |  |  |  |  |  \-> b8 04 01 00 00       	mov    $0x104,%eax
    13e9:	|  |  |  |  |  |  |  |  |  |  |  |  |  |  |  |  +----- e9 81 fe ff ff       	jmp    126f <yylex+0x2cf>
    13ee:	|  |  |  |  |  |  |  |  |  |  |  |  |  |  |  |  |      48 8b 15 00 00 00 00 	mov    0x0(%rip),%rdx        # 13f5 <yylex+0x455>
    13f5:	|  |  |  |  |  |  |  |  |  |  |  |  |  |  |  |  |      48 8d 35 00 00 00 00 	lea    0x0(%rip),%rsi        # 13fc <yylex+0x45c>
    13fc:	|  |  |  |  |  |  |  |  |  |  |  |  |  |  |  |  |      bf 01 00 00 00       	mov    $0x1,%edi
    1401:	|  |  |  |  |  |  |  |  |  |  |  |  |  |  |  |  |      31 c0                	xor    %eax,%eax
    1403:	|  |  |  |  |  |  |  |  |  |  |  |  |  |  |  |  |  /-- e8 00 00 00 00       	call   1408 <yylex+0x468>
    1408:	|  |  |  |  |  |  |  |  |  |  |  |  |  |  |  |  |  \-> b8 03 01 00 00       	mov    $0x103,%eax
    140d:	|  |  |  |  |  |  |  |  |  |  |  |  |  |  |  |  +----- e9 5d fe ff ff       	jmp    126f <yylex+0x2cf>
    1412:	|  |  |  |  |  |  |  |  |  |  |  |  |  |  |  |  |      0f b6 0d 00 00 00 00 	movzbl 0x0(%rip),%ecx        # 1419 <yylex+0x479>
    1419:	|  |  |  |  |  |  |  |  |  |  |  |  |  |  |  |  |      48 8b 35 00 00 00 00 	mov    0x0(%rip),%rsi        # 1420 <yylex+0x480>
    1420:	|  |  |  |  |  |  |  |  |  |  |  |  |  |  |  |  |      45 89 c5             	mov    %r8d,%r13d
    1423:	|  |  |  |  \--|--|--|--|--|--|--|--|--|--|--|--|----- e9 cf fb ff ff       	jmp    ff7 <yylex+0x57>
    1428:	|  |  |  |     |  |  |  |  |  |  |  |  |  |  |  |      48 8b 15 00 00 00 00 	mov    0x0(%rip),%rdx        # 142f <yylex+0x48f>
    142f:	|  |  |  |     |  |  |  |  |  |  |  |  |  |  |  |      48 8d 35 00 00 00 00 	lea    0x0(%rip),%rsi        # 1436 <yylex+0x496>
    1436:	|  |  |  |     |  |  |  |  |  |  |  |  |  |  |  |      bf 01 00 00 00       	mov    $0x1,%edi
    143b:	|  |  |  |     |  |  |  |  |  |  |  |  |  |  |  |      31 c0                	xor    %eax,%eax
    143d:	|  |  |  |     |  |  |  |  |  |  |  |  |  |  |  |  /-- e8 00 00 00 00       	call   1442 <yylex+0x4a2>
    1442:	|  |  |  |     |  |  |  |  |  |  |  |  |  |  |  |  \-> 48 8b 05 00 00 00 00 	mov    0x0(%rip),%rax        # 1449 <yylex+0x4a9>
    1449:	|  |  |  |     |  |  |  |  |  |  |  |  |  |  |  |      0f be 00             	movsbl (%rax),%eax
    144c:	|  |  |  |     |  |  |  |  |  |  |  |  |  |  |  \----- e9 1e fe ff ff       	jmp    126f <yylex+0x2cf>
    1451:	|  |  |  |     |  |  |  |  |  |  |  |  |  |  |         48 63 35 00 00 00 00 	movslq 0x0(%rip),%rsi        # 1458 <yylex+0x4b8>
    1458:	|  |  |  |     |  |  |  |  |  |  |  |  |  |  |         48 8b 0d 00 00 00 00 	mov    0x0(%rip),%rcx        # 145f <yylex+0x4bf>
    145f:	|  |  |  |     |  |  |  |  |  |  |  |  |  |  |         ba 01 00 00 00       	mov    $0x1,%edx
    1464:	|  |  |  |     |  |  |  |  |  |  |  |  |  |  |         45 89 c5             	mov    %r8d,%r13d
    1467:	|  |  |  |     |  |  |  |  |  |  |  |  |  |  |         48 8b 3d 00 00 00 00 	mov    0x0(%rip),%rdi        # 146e <yylex+0x4ce>
    146e:	|  |  |  |     |  |  |  |  |  |  |  |  |  |  |     /-- e8 00 00 00 00       	call   1473 <yylex+0x4d3>
    1473:	|  |  |  |     |  |  |  |  |  |  |  |  |  |  |     \-> 4c 8d 15 00 00 00 00 	lea    0x0(%rip),%r10        # 147a <yylex+0x4da>
    147a:	|  |  |  |     +--|--|--|--|--|--|--|--|--|--|-------- e9 79 fe ff ff       	jmp    12f8 <yylex+0x358>
    147f:	|  |  |  |     |  |  |  |  |  \--|--|--|--|--|-------> 48 8b 05 00 00 00 00 	mov    0x0(%rip),%rax        # 1486 <yylex+0x4e6>
    1486:	|  |  |  |     |  |  |  |  |     |  |  |  |  |         48 89 05 00 00 00 00 	mov    %rax,0x0(%rip)        # 148d <yylex+0x4ed>
    148d:	|  |  |  |     |  |  |  |  \-----|--|--|--|--|-------- e9 bf fc ff ff       	jmp    1151 <yylex+0x1b1>
    1492:	|  |  |  |     |  |  |  \--------|--|--|--|--|-------> 48 8b 05 00 00 00 00 	mov    0x0(%rip),%rax        # 1499 <yylex+0x4f9>
    1499:	|  |  |  |     |  |  |           |  |  |  |  |         48 89 05 00 00 00 00 	mov    %rax,0x0(%rip)        # 14a0 <yylex+0x500>
    14a0:	|  |  |  |     |  |  \-----------|--|--|--|--|-------- e9 9e fc ff ff       	jmp    1143 <yylex+0x1a3>
    14a5:	|  |  |  |     |  |              |  |  |  \--|-------> 48 63 47 1c          	movslq 0x1c(%rdi),%rax
    14a9:	|  |  |  |     |  |              |  |  |     |         4c 8b 0d 00 00 00 00 	mov    0x0(%rip),%r9        # 14b0 <yylex+0x510>
    14b0:	|  |  |  |     |  |              |  |  |     |         c7 47 38 01 00 00 00 	movl   $0x1,0x38(%rdi)
    14b7:	|  |  |  |     |  |              |  |  |     |         89 05 00 00 00 00    	mov    %eax,0x0(%rip)        # 14bd <yylex+0x51d>
    14bd:	|  |  |  |     |  |              |  |  |     |         4c 89 0f             	mov    %r9,(%rdi)
    14c0:	|  |  |  |     |  |              |  \--|-----|-------- e9 4e fd ff ff       	jmp    1213 <yylex+0x273>
    14c5:	|  |  |  |     |  |              |     |     \-------> 48 03 15 00 00 00 00 	add    0x0(%rip),%rdx        # 14cc <yylex+0x52c>
    14cc:	|  |  |  |     |  |              |     |               44 89 44 24 08       	mov    %r8d,0x8(%rsp)
    14d1:	|  |  |  |     |  |              |     |               48 89 15 00 00 00 00 	mov    %rdx,0x0(%rip)        # 14d8 <yylex+0x538>
    14d8:	|  |  |  |     |  |              |     |               49 89 d5             	mov    %rdx,%r13
    14db:	|  |  |  |     |  |              |     |               e8 20 eb ff ff       	call   0 <yy_get_previous_state>
    14e0:	|  |  |  |     |  |              |     |               44 8b 44 24 08       	mov    0x8(%rsp),%r8d
    14e5:	|  |  |  |     |  |              |     |               4c 8d 15 00 00 00 00 	lea    0x0(%rip),%r10        # 14ec <yylex+0x54c>
    14ec:	|  |  |  |     |  |              |     |               89 c7                	mov    %eax,%edi
    14ee:	|  |  |  |     |  |              |     |               48 8b 05 00 00 00 00 	mov    0x0(%rip),%rax        # 14f5 <yylex+0x555>
    14f5:	|  |  |  |     |  |              |     |               48 89 04 24          	mov    %rax,(%rsp)
    14f9:	|  |  |  |     |  |              |     |  /----------> 41 0f b6 4d 00       	movzbl 0x0(%r13),%ecx
    14fe:	|  \--|--|-----|--|--------------|-----|--|----------- e9 06 fb ff ff       	jmp    1009 <yylex+0x69>
    1503:	|     |  |     |  |              |     \--|----------> 48 8b 15 00 00 00 00 	mov    0x0(%rip),%rdx        # 150a <yylex+0x56a>
    150a:	|     |  |     |  |              |        |            48 8b 05 00 00 00 00 	mov    0x0(%rip),%rax        # 1511 <yylex+0x571>
    1511:	|     |  |     |  |              |        |            44 89 04 24          	mov    %r8d,(%rsp)
    1515:	|     |  |     |  |              |        |            4c 63 2d 00 00 00 00 	movslq 0x0(%rip),%r13        # 151c <yylex+0x57c>
    151c:	|     |  |     |  |              |        |            48 8b 04 d0          	mov    (%rax,%rdx,8),%rax
    1520:	|     |  |     |  |              |        |            4c 03 68 08          	add    0x8(%rax),%r13
    1524:	|     |  |     |  |              |        |            4c 89 2d 00 00 00 00 	mov    %r13,0x0(%rip)        # 152b <yylex+0x58b>
    152b:	|     |  |     |  |              |        |            e8 d0 ea ff ff       	call   0 <yy_get_previous_state>
    1530:	|     |  |     |  |              |        |            48 8b 35 00 00 00 00 	mov    0x0(%rip),%rsi        # 1537 <yylex+0x597>
    1537:	|     |  |     |  |              |        |            44 8b 04 24          	mov    (%rsp),%r8d
    153b:	|     |  |     |  |              |        |            4c 8d 15 00 00 00 00 	lea    0x0(%rip),%r10        # 1542 <yylex+0x5a2>
    1542:	|     |  |     |  |              |        |            48 63 d0             	movslq %eax,%rdx
    1545:	|     |  |     |  |              |        |            48 8d 0d 00 00 00 00 	lea    0x0(%rip),%rcx        # 154c <yylex+0x5ac>
    154c:	+-----|--|-----|--|--------------|--------|----------- e9 6d fb ff ff       	jmp    10be <yylex+0x11e>
    1551:	|     |  |     |  |              \--------|----------> 44 89 44 24 08       	mov    %r8d,0x8(%rsp)
    1556:	|     |  |     |  |                       |            48 89 34 24          	mov    %rsi,(%rsp)
    155a:	|     |  |     |  |                       |            c7 05 00 00 00 00 00 	movl   $0x0,0x0(%rip)        # 1564 <yylex+0x5c4>
    1561:	|     |  |     |  |                       |            00 00 00 
    1564:	|     |  |     |  |                       |        /-- e8 00 00 00 00       	call   1569 <yylex+0x5c9>
    1569:	|     |  |     |  |                       |        \-> 44 8b 44 24 08       	mov    0x8(%rsp),%r8d
    156e:	|     |  |     |  |                       |            4c 8d 15 00 00 00 00 	lea    0x0(%rip),%r10        # 1575 <yylex+0x5d5>
    1575:	|     |  |     |  |                       |            85 c0                	test   %eax,%eax
    1577:	|     |  |     |  |                       |  /-------- 0f 84 eb 00 00 00    	je     1668 <yylex+0x6c8>
    157d:	|     |  |     |  |                       |  |         48 8b 05 00 00 00 00 	mov    0x0(%rip),%rax        # 1584 <yylex+0x5e4>
    1584:	|     |  |     |  |                       |  |         48 8b 34 24          	mov    (%rsp),%rsi
    1588:	|     |  |     |  |                       |  |         48 8d 0d 00 00 00 00 	lea    0x0(%rip),%rcx        # 158f <yylex+0x5ef>
    158f:	|     |  |     |  |                       |  |         48 89 05 00 00 00 00 	mov    %rax,0x0(%rip)        # 1596 <yylex+0x5f6>
    1596:	|     |  |     |  |                       |  |         8b 05 00 00 00 00    	mov    0x0(%rip),%eax        # 159c <yylex+0x5fc>
    159c:	|     |  |     |  |                       |  |         8d 50 ff             	lea    -0x1(%rax),%edx
    159f:	|     |  |     |  |                       |  |         89 d0                	mov    %edx,%eax
    15a1:	|     |  |     |  |                       |  |         c1 e8 1f             	shr    $0x1f,%eax
    15a4:	|     |  |     |  |                       |  |         01 d0                	add    %edx,%eax
    15a6:	|     |  |     |  |                       |  |         d1 f8                	sar    %eax
    15a8:	|     |  |     |  |                       |  |         83 c0 18             	add    $0x18,%eax
    15ab:	|     |  \-----|--|-----------------------|--|-------- e9 54 fb ff ff       	jmp    1104 <yylex+0x164>
    15b0:	|     \--------|--|-----------------------|--|-------> 48 8d 3d 00 00 00 00 	lea    0x0(%rip),%rdi        # 15b7 <yylex+0x617>
    15b7:	|              |  |                       |  |         e8 64 eb ff ff       	call   120 <yy_fatal_error>
    15bc:	|              |  \-----------------------|--|-------> 48 63 d2             	movslq %edx,%rdx
    15bf:	|              |                          |  |         48 03 15 00 00 00 00 	add    0x0(%rip),%rdx        # 15c6 <yylex+0x626>
    15c6:	|              |                          |  |         44 89 04 24          	mov    %r8d,(%rsp)
    15ca:	|              |                          |  |         48 89 15 00 00 00 00 	mov    %rdx,0x0(%rip)        # 15d1 <yylex+0x631>
    15d1:	|              |                          |  |         49 89 d5             	mov    %rdx,%r13
    15d4:	|              |                          |  |         e8 27 ea ff ff       	call   0 <yy_get_previous_state>
    15d9:	|              |                          |  |         4c 8d 15 00 00 00 00 	lea    0x0(%rip),%r10        # 15e0 <yylex+0x640>
    15e0:	|              |                          |  |         44 8b 04 24          	mov    (%rsp),%r8d
    15e4:	|              |                          |  |         48 8d 0d 00 00 00 00 	lea    0x0(%rip),%rcx        # 15eb <yylex+0x64b>
    15eb:	|              |                          |  |         48 63 d0             	movslq %eax,%rdx
    15ee:	|              |                          |  |         66 41 83 3c 52 00    	cmpw   $0x0,(%r10,%rdx,2)
    15f4:	|              |                          |  |         48 89 d6             	mov    %rdx,%rsi
    15f7:	|              |                          |  |     /-- 74 0d                	je     1606 <yylex+0x666>
    15f9:	|              |                          |  |     |   89 15 00 00 00 00    	mov    %edx,0x0(%rip)        # 15ff <yylex+0x65f>
    15ff:	|              |                          |  |     |   4c 89 2d 00 00 00 00 	mov    %r13,0x0(%rip)        # 1606 <yylex+0x666>
    1606:	|              |                          |  |     \-> 0f bf 04 53          	movswl (%rbx,%rdx,2),%eax
    160a:	|              |                          |  |         83 c0 01             	add    $0x1,%eax
    160d:	|              |                          |  |         48 98                	cltq   
    160f:	|              |                          |  |         0f bf 7c 45 00       	movswl 0x0(%rbp,%rax,2),%edi
    1614:	|              |                          |  |         39 f7                	cmp    %esi,%edi
    1616:	|              |                          |  |  /----- 74 19                	je     1631 <yylex+0x691>
    1618:	|              |                          |  |  |  /-> 49 0f bf 34 74       	movswq (%r12,%rsi,2),%rsi
    161d:	|              |                          |  |  |  |   0f bf 04 73          	movswl (%rbx,%rsi,2),%eax
    1621:	|              |                          |  |  |  |   83 c0 01             	add    $0x1,%eax
    1624:	|              |                          |  |  |  |   48 98                	cltq   
    1626:	|              |                          |  |  |  |   44 0f bf 4c 45 00    	movswl 0x0(%rbp,%rax,2),%r9d
    162c:	|              |                          |  |  |  |   44 39 ce             	cmp    %r9d,%esi
    162f:	|              |                          |  |  |  \-- 75 e7                	jne    1618 <yylex+0x678>
    1631:	|              |                          |  |  \----> 48 8d 35 00 00 00 00 	lea    0x0(%rip),%rsi        # 1638 <yylex+0x698>
    1638:	|              |                          |  |         0f bf 3c 46          	movswl (%rsi,%rax,2),%edi
    163c:	|              |                          |  |         48 8b 35 00 00 00 00 	mov    0x0(%rip),%rsi        # 1643 <yylex+0x6a3>
    1643:	|              |                          |  |         83 ff 49             	cmp    $0x49,%edi
    1646:	+--------------|--------------------------|--|-------- 0f 84 72 fa ff ff    	je     10be <yylex+0x11e>
    164c:	|              |                          |  |         85 ff                	test   %edi,%edi
    164e:	\--------------|--------------------------|--|-------- 0f 84 6a fa ff ff    	je     10be <yylex+0x11e>
    1654:	               |                          |  |         49 83 c5 01          	add    $0x1,%r13
    1658:	               |                          |  |         48 89 34 24          	mov    %rsi,(%rsp)
    165c:	               |                          |  |         4c 89 2d 00 00 00 00 	mov    %r13,0x0(%rip)        # 1663 <yylex+0x6c3>
    1663:	               |                          \--|-------- e9 91 fe ff ff       	jmp    14f9 <yylex+0x559>
    1668:	               |                             \-------> 83 3d 00 00 00 00 00 	cmpl   $0x0,0x0(%rip)        # 166f <yylex+0x6cf>
    166f:	               |                                       45 89 c5             	mov    %r8d,%r13d
    1672:	               +-------------------------------------- 0f 85 80 fc ff ff    	jne    12f8 <yylex+0x358>
    1678:	               |                                       48 8b 3d 00 00 00 00 	mov    0x0(%rip),%rdi        # 167f <yylex+0x6df>
    167f:	               |                                   /-- e8 00 00 00 00       	call   1684 <yylex+0x6e4>
    1684:	               |                                   \-> 4c 8d 15 00 00 00 00 	lea    0x0(%rip),%r10        # 168b <yylex+0x6eb>
    168b:	               \-------------------------------------- e9 68 fc ff ff       	jmp    12f8 <yylex+0x358>
